(lp0
(lp1
I3
aI2
aI0
aI2
aI3
aI1
aI0
aI3
aI3
aI2
aI2
aI1
aI2
aI0
aI2
aI1
aI2
aI1
aI3
aI2
aI1
aI3
aI2
aI0
aI2
aI0
aI0
aI3
aI3
aI0
aI1
aI2
aI0
aI3
aI2
aI2
aI2
aI2
aI3
aI0
aI2
aI3
aI0
aI3
aI2
aI3
aI0
aI3
aI2
aI1
aI2
aI2
aI1
aI3
aI0
aI0
aI0
aI3
aI1
aI1
aI2
aI0
aI2
aI3
aI3
aI2
aI0
aI3
aI3
aI1
aI3
aI0
aI3
aI1
aI1
aI3
aI1
aI1
aI0
aI3
aI2
aI1
aI0
aI2
aI0
aI0
aI2
aI2
aI0
aI3
aI0
aI1
aI3
aI1
aI3
aI3
aI3
aI0
aI1
aI1
aa(lp2
I2
aI1
aI2
aI1
aI2
aI1
aI3
aI0
aI0
aI0
aI0
aI3
aI3
aI3
aI2
aI0
aI0
aI1
aI0
aI1
aI0
aI0
aI3
aI1
aI3
aI3
aI3
aI2
aI1
aI0
aI1
aI1
aI0
aI1
aI2
aI3
aI0
aI1
aI2
aI0
aI1
aI1
aI3
aI3
aI2
aI3
aI3
aI3
aI2
aI1
aI2
aI3
aI1
aI3
aI1
aI3
aI0
aI3
aI3
aI3
aI2
aI3
aI3
aI2
aI3
aI3
aI0
aI3
aI3
aI0
aI1
aI1
aI2
aI3
aI2
aI0
aI2
aI3
aI0
aI2
aI1
aI0
aI3
aI0
aI0
aI0
aI3
aI1
aI2
aI1
aI3
aI1
aI0
aI3
aI0
aI2
aI0
aI2
aI1
aI2
aa(lp3
I3
aI1
aI3
aI1
aI2
aI0
aI0
aI1
aI3
aI3
aI1
aI2
aI1
aI1
aI2
aI0
aI3
aI1
aI2
aI0
aI1
aI1
aI0
aI0
aI3
aI2
aI0
aI3
aI3
aI2
aI3
aI3
aI2
aI0
aI1
aI0
aI0
aI1
aI0
aI2
aI1
aI0
aI2
aI3
aI2
aI3
aI1
aI0
aI2
aI3
aI3
aI3
aI3
aI3
aI2
aI2
aI2
aI0
aI0
aI1
aI3
aI2
aI1
aI0
aI2
aI0
aI2
aI2
aI0
aI1
aI1
aI3
aI2
aI2
aI1
aI2
aI3
aI2
aI1
aI1
aI2
aI2
aI1
aI1
aI2
aI3
aI0
aI0
aI2
aI2
aI1
aI3
aI3
aI3
aI1
aI1
aI1
aI1
aI3
aI0
aa(lp4
I0
aI0
aI0
aI2
aI3
aI2
aI3
aI1
aI0
aI2
aI0
aI0
aI3
aI2
aI2
aI2
aI2
aI3
aI1
aI2
aI1
aI2
aI1
aI3
aI1
aI0
aI1
aI0
aI0
aI2
aI3
aI1
aI1
aI3
aI2
aI0
aI2
aI2
aI1
aI1
aI1
aI1
aI0
aI1
aI1
aI2
aI1
aI2
aI2
aI3
aI3
aI0
aI2
aI2
aI3
aI3
aI1
aI3
aI3
aI1
aI0
aI2
aI1
aI0
aI3
aI0
aI0
aI2
aI1
aI1
aI2
aI0
aI1
aI1
aI2
aI1
aI0
aI1
aI0
aI0
aI0
aI0
aI1
aI1
aI3
aI0
aI1
aI1
aI2
aI2
aI2
aI1
aI2
aI2
aI2
aI1
aI0
aI0
aI3
aI1
aa(lp5
I3
aI0
aI3
aI3
aI0
aI2
aI1
aI2
aI1
aI3
aI0
aI3
aI1
aI1
aI1
aI0
aI0
aI2
aI1
aI2
aI0
aI3
aI3
aI3
aI3
aI2
aI1
aI0
aI1
aI3
aI0
aI2
aI1
aI3
aI0
aI1
aI2
aI3
aI0
aI1
aI3
aI2
aI3
aI0
aI0
aI0
aI2
aI1
aI3
aI3
aI1
aI1
aI0
aI2
aI1
aI3
aI0
aI2
aI3
aI1
aI2
aI3
aI2
aI0
aI1
aI1
aI2
aI2
aI1
aI3
aI2
aI2
aI3
aI2
aI2
aI0
aI2
aI2
aI2
aI0
aI3
aI1
aI1
aI2
aI0
aI0
aI1
aI2
aI2
aI2
aI0
aI1
aI3
aI3
aI3
aI0
aI0
aI1
aI2
aI3
aa(lp6
I1
aI0
aI2
aI0
aI1
aI3
aI0
aI2
aI0
aI1
aI3
aI0
aI2
aI2
aI2
aI0
aI3
aI2
aI3
aI3
aI0
aI0
aI0
aI0
aI2
aI0
aI2
aI0
aI2
aI1
aI1
aI1
aI0
aI3
aI2
aI0
aI1
aI1
aI0
aI0
aI0
aI1
aI2
aI2
aI3
aI3
aI3
aI2
aI2
aI1
aI2
aI1
aI1
aI3
aI3
aI1
aI0
aI1
aI1
aI0
aI0
aI0
aI2
aI0
aI2
aI2
aI0
aI2
aI1
aI0
aI1
aI1
aI3
aI1
aI2
aI3
aI1
aI2
aI2
aI2
aI2
aI1
aI1
aI0
aI0
aI0
aI3
aI2
aI1
aI3
aI1
aI2
aI2
aI3
aI0
aI3
aI0
aI1
aI1
aI3
aa(lp7
I3
aI1
aI2
aI3
aI1
aI3
aI0
aI3
aI3
aI3
aI2
aI2
aI0
aI1
aI0
aI1
aI2
aI3
aI2
aI0
aI2
aI1
aI2
aI2
aI0
aI2
aI3
aI1
aI3
aI1
aI0
aI2
aI0
aI1
aI2
aI1
aI1
aI2
aI2
aI1
aI2
aI0
aI2
aI3
aI3
aI1
aI1
aI1
aI3
aI2
aI3
aI0
aI1
aI1
aI2
aI2
aI1
aI3
aI0
aI2
aI2
aI0
aI3
aI2
aI2
aI3
aI0
aI0
aI3
aI1
aI2
aI1
aI1
aI3
aI2
aI1
aI2
aI3
aI3
aI0
aI3
aI0
aI0
aI1
aI1
aI1
aI3
aI3
aI3
aI2
aI1
aI0
aI1
aI2
aI2
aI0
aI3
aI1
aI1
aI0
aa(lp8
I0
aI0
aI0
aI3
aI2
aI1
aI2
aI2
aI1
aI1
aI1
aI2
aI0
aI1
aI2
aI3
aI3
aI2
aI3
aI1
aI2
aI2
aI2
aI0
aI0
aI2
aI1
aI0
aI1
aI0
aI2
aI0
aI0
aI2
aI0
aI1
aI1
aI1
aI2
aI3
aI2
aI1
aI1
aI2
aI0
aI2
aI0
aI1
aI2
aI0
aI1
aI2
aI1
aI3
aI1
aI1
aI1
aI3
aI0
aI2
aI1
aI3
aI1
aI0
aI2
aI2
aI0
aI0
aI1
aI2
aI2
aI2
aI3
aI2
aI0
aI3
aI2
aI3
aI2
aI1
aI2
aI2
aI2
aI1
aI2
aI1
aI3
aI1
aI0
aI2
aI1
aI2
aI1
aI1
aI2
aI0
aI2
aI0
aI0
aI2
aa(lp9
I3
aI1
aI3
aI2
aI0
aI2
aI0
aI2
aI0
aI3
aI2
aI2
aI3
aI2
aI1
aI1
aI3
aI0
aI2
aI0
aI2
aI2
aI1
aI2
aI0
aI3
aI3
aI2
aI0
aI3
aI2
aI0
aI2
aI2
aI2
aI3
aI3
aI3
aI2
aI1
aI2
aI1
aI2
aI0
aI2
aI1
aI2
aI1
aI0
aI2
aI3
aI2
aI3
aI3
aI1
aI0
aI1
aI2
aI2
aI0
aI0
aI3
aI3
aI1
aI3
aI3
aI1
aI0
aI2
aI2
aI1
aI1
aI3
aI3
aI2
aI2
aI2
aI0
aI1
aI1
aI2
aI0
aI1
aI3
aI0
aI1
aI2
aI2
aI1
aI3
aI0
aI1
aI1
aI1
aI2
aI2
aI1
aI2
aI0
aI2
aa(lp10
I1
aI0
aI1
aI3
aI0
aI0
aI3
aI2
aI1
aI1
aI1
aI2
aI0
aI0
aI2
aI0
aI3
aI1
aI2
aI2
aI0
aI0
aI1
aI2
aI1
aI2
aI3
aI3
aI3
aI3
aI3
aI2
aI0
aI2
aI3
aI3
aI1
aI2
aI3
aI3
aI2
aI2
aI1
aI0
aI0
aI3
aI1
aI0
aI2
aI3
aI2
aI0
aI1
aI3
aI1
aI1
aI3
aI2
aI2
aI0
aI0
aI2
aI0
aI0
aI3
aI2
aI1
aI0
aI0
aI1
aI3
aI2
aI3
aI0
aI3
aI0
aI2
aI0
aI0
aI1
aI2
aI3
aI2
aI1
aI2
aI1
aI3
aI0
aI0
aI2
aI0
aI0
aI2
aI0
aI1
aI2
aI1
aI2
aI3
aI0
aa(lp11
I0
aI3
aI2
aI2
aI0
aI1
aI3
aI1
aI1
aI2
aI0
aI2
aI1
aI1
aI2
aI3
aI0
aI3
aI3
aI3
aI2
aI3
aI0
aI1
aI0
aI3
aI1
aI0
aI2
aI0
aI2
aI3
aI1
aI0
aI1
aI1
aI3
aI1
aI0
aI3
aI0
aI3
aI3
aI1
aI3
aI2
aI0
aI1
aI2
aI0
aI2
aI2
aI1
aI0
aI3
aI1
aI2
aI2
aI1
aI2
aI2
aI3
aI2
aI0
aI1
aI2
aI1
aI1
aI2
aI1
aI0
aI0
aI3
aI2
aI2
aI0
aI0
aI3
aI3
aI3
aI3
aI2
aI3
aI3
aI1
aI1
aI1
aI0
aI1
aI3
aI3
aI0
aI3
aI0
aI1
aI3
aI0
aI1
aI2
aI2
aa(lp12
I2
aI1
aI2
aI0
aI3
aI3
aI0
aI2
aI3
aI3
aI3
aI1
aI3
aI0
aI3
aI2
aI2
aI1
aI1
aI3
aI0
aI3
aI2
aI2
aI2
aI3
aI3
aI1
aI0
aI2
aI1
aI0
aI2
aI3
aI1
aI1
aI1
aI3
aI1
aI0
aI2
aI0
aI1
aI3
aI2
aI3
aI2
aI1
aI1
aI1
aI1
aI2
aI1
aI0
aI2
aI3
aI3
aI3
aI2
aI2
aI0
aI3
aI0
aI0
aI1
aI0
aI3
aI3
aI0
aI2
aI2
aI0
aI3
aI0
aI1
aI1
aI0
aI1
aI1
aI3
aI3
aI2
aI3
aI2
aI2
aI2
aI3
aI3
aI0
aI0
aI0
aI2
aI3
aI0
aI0
aI1
aI3
aI2
aI0
aI3
aa(lp13
I3
aI0
aI1
aI0
aI1
aI0
aI1
aI0
aI2
aI3
aI0
aI1
aI0
aI0
aI2
aI3
aI0
aI2
aI3
aI2
aI3
aI2
aI2
aI3
aI1
aI3
aI0
aI1
aI0
aI2
aI0
aI3
aI2
aI0
aI0
aI1
aI2
aI0
aI1
aI2
aI1
aI1
aI1
aI1
aI3
aI2
aI0
aI0
aI1
aI0
aI0
aI3
aI2
aI2
aI0
aI0
aI2
aI2
aI3
aI1
aI0
aI0
aI3
aI2
aI2
aI2
aI2
aI1
aI0
aI0
aI1
aI0
aI2
aI2
aI1
aI3
aI0
aI1
aI2
aI3
aI0
aI1
aI2
aI0
aI2
aI2
aI1
aI3
aI3
aI2
aI0
aI0
aI2
aI3
aI2
aI3
aI3
aI0
aI1
aI1
aa(lp14
I0
aI3
aI1
aI2
aI2
aI3
aI1
aI2
aI1
aI1
aI1
aI0
aI2
aI0
aI3
aI2
aI2
aI3
aI3
aI2
aI1
aI0
aI1
aI3
aI0
aI2
aI0
aI1
aI1
aI3
aI0
aI1
aI1
aI1
aI3
aI1
aI1
aI2
aI3
aI0
aI2
aI3
aI1
aI0
aI0
aI3
aI2
aI2
aI1
aI2
aI1
aI2
aI0
aI0
aI2
aI0
aI0
aI1
aI1
aI2
aI3
aI2
aI0
aI2
aI0
aI2
aI3
aI3
aI2
aI2
aI1
aI0
aI1
aI2
aI1
aI0
aI3
aI1
aI0
aI3
aI1
aI3
aI2
aI3
aI3
aI3
aI1
aI3
aI1
aI2
aI3
aI0
aI1
aI1
aI1
aI0
aI0
aI2
aI3
aI2
aa(lp15
I3
aI1
aI3
aI2
aI2
aI3
aI2
aI2
aI2
aI0
aI0
aI0
aI0
aI0
aI3
aI0
aI0
aI2
aI3
aI2
aI2
aI1
aI0
aI1
aI3
aI2
aI3
aI1
aI3
aI1
aI0
aI1
aI2
aI0
aI3
aI1
aI1
aI0
aI0
aI0
aI2
aI2
aI3
aI2
aI1
aI3
aI0
aI2
aI3
aI1
aI3
aI3
aI2
aI2
aI3
aI0
aI0
aI0
aI2
aI2
aI0
aI2
aI2
aI3
aI0
aI0
aI0
aI2
aI2
aI0
aI2
aI2
aI3
aI1
aI0
aI1
aI2
aI2
aI3
aI3
aI1
aI3
aI2
aI3
aI1
aI1
aI3
aI2
aI1
aI3
aI3
aI2
aI2
aI1
aI1
aI2
aI2
aI1
aI3
aI0
aa(lp16
I2
aI0
aI3
aI0
aI2
aI2
aI2
aI2
aI3
aI3
aI2
aI0
aI2
aI2
aI0
aI1
aI0
aI1
aI0
aI1
aI0
aI0
aI1
aI1
aI3
aI2
aI2
aI1
aI3
aI2
aI1
aI0
aI0
aI1
aI0
aI3
aI2
aI0
aI3
aI0
aI1
aI1
aI0
aI0
aI0
aI1
aI1
aI0
aI2
aI1
aI1
aI0
aI0
aI1
aI0
aI2
aI3
aI0
aI1
aI0
aI2
aI1
aI1
aI3
aI1
aI0
aI3
aI3
aI3
aI3
aI1
aI2
aI1
aI0
aI1
aI3
aI1
aI2
aI0
aI2
aI1
aI0
aI3
aI1
aI0
aI2
aI2
aI3
aI2
aI0
aI3
aI1
aI1
aI0
aI3
aI3
aI2
aI0
aI1
aI3
aa(lp17
I0
aI0
aI2
aI1
aI2
aI2
aI3
aI3
aI2
aI0
aI3
aI1
aI1
aI2
aI1
aI2
aI2
aI0
aI0
aI3
aI1
aI2
aI2
aI1
aI1
aI0
aI3
aI2
aI2
aI0
aI1
aI1
aI3
aI3
aI0
aI2
aI0
aI3
aI0
aI3
aI2
aI3
aI1
aI2
aI2
aI1
aI3
aI0
aI0
aI3
aI0
aI1
aI1
aI1
aI3
aI2
aI2
aI0
aI3
aI3
aI3
aI3
aI3
aI0
aI1
aI1
aI3
aI3
aI0
aI3
aI1
aI3
aI2
aI2
aI3
aI3
aI0
aI1
aI3
aI2
aI3
aI0
aI3
aI2
aI1
aI2
aI0
aI0
aI0
aI0
aI1
aI3
aI3
aI0
aI3
aI3
aI1
aI1
aI1
aI2
aa(lp18
I0
aI0
aI2
aI3
aI2
aI2
aI0
aI1
aI1
aI2
aI3
aI1
aI1
aI0
aI3
aI1
aI2
aI2
aI2
aI3
aI1
aI0
aI1
aI1
aI0
aI2
aI0
aI2
aI0
aI1
aI0
aI3
aI2
aI0
aI1
aI1
aI2
aI0
aI0
aI3
aI0
aI2
aI1
aI1
aI2
aI1
aI2
aI3
aI2
aI1
aI2
aI2
aI1
aI0
aI2
aI0
aI3
aI1
aI1
aI0
aI2
aI1
aI0
aI3
aI2
aI3
aI3
aI1
aI1
aI1
aI1
aI3
aI0
aI1
aI0
aI3
aI2
aI1
aI3
aI2
aI2
aI2
aI3
aI3
aI0
aI3
aI3
aI0
aI1
aI2
aI3
aI3
aI3
aI2
aI2
aI0
aI2
aI2
aI2
aI2
aa(lp19
I0
aI3
aI0
aI3
aI3
aI0
aI1
aI2
aI1
aI0
aI2
aI3
aI2
aI1
aI1
aI2
aI3
aI2
aI3
aI2
aI0
aI0
aI2
aI0
aI1
aI2
aI1
aI2
aI1
aI3
aI3
aI3
aI2
aI3
aI0
aI3
aI2
aI2
aI2
aI1
aI3
aI1
aI1
aI2
aI2
aI0
aI1
aI1
aI3
aI1
aI2
aI3
aI0
aI3
aI0
aI0
aI1
aI1
aI1
aI1
aI3
aI1
aI1
aI0
aI2
aI0
aI0
aI0
aI2
aI3
aI0
aI0
aI2
aI3
aI0
aI0
aI3
aI2
aI3
aI0
aI3
aI1
aI3
aI2
aI1
aI1
aI1
aI3
aI0
aI2
aI1
aI0
aI2
aI3
aI1
aI3
aI3
aI3
aI2
aI3
aa(lp20
I3
aI1
aI1
aI2
aI1
aI1
aI2
aI2
aI3
aI0
aI0
aI3
aI1
aI3
aI3
aI1
aI3
aI3
aI1
aI1
aI1
aI3
aI3
aI3
aI0
aI3
aI1
aI3
aI3
aI1
aI1
aI1
aI2
aI0
aI3
aI1
aI3
aI0
aI2
aI1
aI1
aI1
aI3
aI2
aI1
aI1
aI2
aI3
aI3
aI2
aI3
aI0
aI0
aI2
aI0
aI3
aI2
aI1
aI2
aI0
aI0
aI3
aI1
aI3
aI0
aI2
aI1
aI0
aI2
aI3
aI1
aI0
aI3
aI3
aI0
aI2
aI0
aI3
aI2
aI0
aI3
aI3
aI3
aI2
aI2
aI1
aI0
aI1
aI1
aI3
aI3
aI3
aI2
aI2
aI3
aI1
aI2
aI0
aI0
aI0
aa(lp21
I0
aI3
aI1
aI3
aI1
aI0
aI1
aI3
aI3
aI3
aI0
aI1
aI1
aI0
aI0
aI2
aI2
aI2
aI1
aI1
aI2
aI0
aI1
aI1
aI0
aI1
aI2
aI2
aI1
aI2
aI1
aI2
aI2
aI2
aI3
aI3
aI3
aI0
aI2
aI1
aI1
aI1
aI3
aI0
aI0
aI3
aI1
aI3
aI3
aI1
aI2
aI1
aI2
aI3
aI2
aI0
aI3
aI1
aI2
aI0
aI0
aI2
aI2
aI3
aI0
aI3
aI2
aI2
aI3
aI2
aI2
aI0
aI1
aI1
aI2
aI1
aI0
aI3
aI2
aI2
aI2
aI1
aI2
aI1
aI0
aI0
aI0
aI0
aI0
aI0
aI0
aI1
aI3
aI0
aI0
aI2
aI3
aI2
aI1
aI1
aa(lp22
I1
aI3
aI0
aI2
aI1
aI0
aI0
aI2
aI0
aI3
aI2
aI3
aI3
aI2
aI3
aI2
aI1
aI0
aI0
aI1
aI2
aI0
aI3
aI0
aI3
aI1
aI3
aI1
aI0
aI3
aI3
aI0
aI0
aI0
aI1
aI1
aI3
aI0
aI0
aI2
aI1
aI1
aI0
aI2
aI0
aI1
aI2
aI3
aI0
aI2
aI3
aI2
aI2
aI2
aI2
aI0
aI3
aI3
aI1
aI0
aI3
aI1
aI0
aI1
aI1
aI1
aI0
aI2
aI1
aI2
aI3
aI2
aI0
aI3
aI0
aI3
aI1
aI3
aI0
aI0
aI3
aI1
aI3
aI2
aI3
aI1
aI1
aI3
aI2
aI2
aI1
aI2
aI2
aI1
aI1
aI1
aI1
aI1
aI1
aI1
aa(lp23
I1
aI1
aI1
aI0
aI1
aI2
aI2
aI0
aI3
aI0
aI0
aI0
aI0
aI0
aI1
aI0
aI3
aI0
aI2
aI2
aI0
aI2
aI2
aI2
aI3
aI1
aI1
aI1
aI1
aI1
aI1
aI3
aI0
aI1
aI0
aI2
aI3
aI3
aI0
aI3
aI3
aI0
aI0
aI0
aI0
aI1
aI1
aI1
aI1
aI1
aI0
aI3
aI3
aI3
aI0
aI3
aI3
aI2
aI2
aI0
aI0
aI0
aI2
aI0
aI1
aI1
aI1
aI0
aI3
aI1
aI2
aI1
aI3
aI2
aI0
aI3
aI2
aI2
aI2
aI3
aI0
aI3
aI0
aI1
aI2
aI3
aI0
aI1
aI3
aI0
aI1
aI1
aI0
aI1
aI2
aI2
aI3
aI2
aI0
aI1
aa(lp24
I1
aI1
aI1
aI1
aI1
aI2
aI2
aI0
aI3
aI3
aI2
aI0
aI3
aI1
aI2
aI1
aI1
aI0
aI3
aI2
aI2
aI3
aI3
aI1
aI2
aI2
aI0
aI3
aI0
aI2
aI2
aI0
aI1
aI3
aI0
aI3
aI1
aI1
aI2
aI0
aI3
aI1
aI1
aI3
aI3
aI3
aI0
aI2
aI0
aI1
aI0
aI3
aI1
aI2
aI0
aI2
aI3
aI1
aI2
aI3
aI2
aI0
aI2
aI0
aI0
aI1
aI1
aI2
aI0
aI1
aI3
aI0
aI0
aI0
aI1
aI3
aI0
aI2
aI3
aI3
aI2
aI3
aI1
aI2
aI3
aI1
aI3
aI2
aI1
aI1
aI2
aI2
aI0
aI3
aI0
aI2
aI3
aI1
aI1
aI3
aa(lp25
I1
aI0
aI0
aI0
aI2
aI1
aI1
aI1
aI0
aI2
aI0
aI1
aI0
aI3
aI1
aI3
aI2
aI1
aI1
aI0
aI3
aI2
aI1
aI2
aI0
aI2
aI3
aI1
aI3
aI0
aI2
aI1
aI0
aI1
aI0
aI3
aI0
aI0
aI3
aI1
aI2
aI3
aI0
aI1
aI1
aI1
aI1
aI0
aI0
aI3
aI2
aI3
aI1
aI3
aI3
aI0
aI1
aI3
aI1
aI0
aI2
aI1
aI3
aI3
aI0
aI2
aI1
aI0
aI1
aI3
aI3
aI0
aI1
aI0
aI1
aI1
aI2
aI2
aI0
aI3
aI1
aI3
aI2
aI0
aI0
aI0
aI0
aI0
aI2
aI2
aI1
aI1
aI3
aI3
aI2
aI1
aI2
aI0
aI3
aI2
aa(lp26
I1
aI1
aI3
aI0
aI2
aI3
aI0
aI2
aI1
aI3
aI3
aI2
aI1
aI0
aI1
aI0
aI0
aI2
aI3
aI2
aI1
aI1
aI2
aI3
aI2
aI0
aI1
aI1
aI1
aI2
aI2
aI3
aI3
aI0
aI2
aI3
aI1
aI2
aI2
aI1
aI1
aI0
aI1
aI2
aI3
aI3
aI2
aI2
aI0
aI3
aI0
aI0
aI0
aI2
aI3
aI3
aI2
aI1
aI0
aI0
aI3
aI1
aI0
aI0
aI2
aI2
aI1
aI3
aI2
aI2
aI1
aI2
aI2
aI3
aI3
aI0
aI1
aI1
aI2
aI0
aI3
aI1
aI2
aI2
aI2
aI3
aI2
aI2
aI1
aI2
aI1
aI1
aI2
aI1
aI1
aI3
aI0
aI0
aI2
aI1
aa(lp27
I0
aI1
aI2
aI3
aI3
aI1
aI0
aI2
aI0
aI1
aI3
aI1
aI2
aI2
aI3
aI2
aI0
aI3
aI1
aI0
aI1
aI3
aI3
aI0
aI3
aI0
aI3
aI3
aI0
aI2
aI1
aI3
aI0
aI1
aI3
aI3
aI3
aI1
aI3
aI0
aI1
aI3
aI3
aI3
aI3
aI3
aI1
aI2
aI3
aI0
aI0
aI3
aI1
aI0
aI3
aI1
aI2
aI1
aI3
aI2
aI0
aI1
aI2
aI3
aI0
aI0
aI1
aI3
aI0
aI3
aI1
aI1
aI3
aI1
aI0
aI2
aI2
aI2
aI0
aI2
aI3
aI3
aI3
aI2
aI3
aI0
aI0
aI0
aI3
aI1
aI2
aI2
aI3
aI0
aI0
aI3
aI1
aI1
aI1
aI2
aa(lp28
I1
aI3
aI0
aI0
aI2
aI0
aI1
aI2
aI3
aI2
aI3
aI1
aI0
aI3
aI0
aI1
aI3
aI0
aI3
aI3
aI1
aI2
aI3
aI1
aI0
aI1
aI1
aI1
aI2
aI2
aI3
aI3
aI2
aI1
aI3
aI2
aI2
aI1
aI0
aI1
aI2
aI1
aI0
aI0
aI0
aI0
aI1
aI2
aI3
aI3
aI3
aI0
aI1
aI3
aI0
aI1
aI2
aI0
aI1
aI3
aI0
aI1
aI2
aI0
aI2
aI0
aI2
aI0
aI0
aI2
aI3
aI2
aI0
aI1
aI0
aI0
aI0
aI1
aI3
aI1
aI2
aI3
aI3
aI1
aI3
aI2
aI1
aI3
aI0
aI0
aI0
aI1
aI0
aI1
aI3
aI3
aI2
aI1
aI3
aI1
aa(lp29
I2
aI1
aI2
aI0
aI0
aI0
aI1
aI0
aI1
aI1
aI3
aI0
aI1
aI2
aI2
aI1
aI3
aI2
aI2
aI3
aI3
aI3
aI2
aI3
aI1
aI3
aI3
aI2
aI1
aI3
aI0
aI1
aI0
aI1
aI1
aI1
aI1
aI2
aI2
aI1
aI1
aI2
aI0
aI3
aI2
aI1
aI2
aI1
aI3
aI2
aI3
aI3
aI1
aI2
aI0
aI0
aI1
aI0
aI2
aI0
aI0
aI0
aI0
aI3
aI1
aI2
aI2
aI0
aI3
aI1
aI0
aI1
aI0
aI1
aI2
aI0
aI0
aI3
aI2
aI1
aI2
aI1
aI1
aI3
aI2
aI0
aI2
aI3
aI0
aI2
aI3
aI1
aI1
aI1
aI2
aI3
aI3
aI3
aI3
aI2
aa(lp30
I0
aI1
aI2
aI0
aI2
aI0
aI3
aI3
aI2
aI0
aI0
aI2
aI0
aI2
aI3
aI1
aI3
aI0
aI1
aI1
aI2
aI2
aI1
aI1
aI0
aI3
aI2
aI3
aI1
aI1
aI1
aI3
aI3
aI1
aI1
aI0
aI3
aI0
aI2
aI2
aI2
aI0
aI2
aI2
aI1
aI1
aI2
aI3
aI3
aI3
aI3
aI0
aI1
aI0
aI1
aI0
aI2
aI1
aI3
aI3
aI0
aI3
aI1
aI2
aI0
aI1
aI3
aI0
aI2
aI2
aI3
aI2
aI0
aI0
aI2
aI1
aI2
aI3
aI1
aI2
aI3
aI1
aI1
aI3
aI3
aI1
aI3
aI1
aI2
aI3
aI0
aI1
aI1
aI2
aI2
aI1
aI3
aI0
aI3
aI2
aa(lp31
I3
aI1
aI1
aI2
aI3
aI3
aI0
aI0
aI0
aI1
aI2
aI0
aI3
aI2
aI2
aI3
aI1
aI1
aI1
aI3
aI2
aI3
aI2
aI1
aI3
aI3
aI3
aI0
aI3
aI0
aI0
aI1
aI1
aI3
aI0
aI1
aI0
aI2
aI2
aI2
aI2
aI0
aI3
aI3
aI1
aI3
aI0
aI2
aI3
aI0
aI2
aI2
aI2
aI3
aI1
aI1
aI1
aI2
aI1
aI1
aI2
aI3
aI0
aI1
aI0
aI3
aI1
aI0
aI1
aI0
aI2
aI2
aI0
aI2
aI0
aI1
aI3
aI1
aI1
aI3
aI2
aI2
aI0
aI0
aI1
aI2
aI2
aI0
aI1
aI2
aI3
aI0
aI1
aI3
aI1
aI3
aI2
aI2
aI0
aI1
aa(lp32
I2
aI3
aI1
aI3
aI2
aI0
aI1
aI1
aI1
aI2
aI0
aI3
aI1
aI0
aI0
aI2
aI3
aI2
aI0
aI3
aI0
aI3
aI3
aI1
aI1
aI0
aI0
aI0
aI3
aI1
aI1
aI0
aI2
aI3
aI2
aI0
aI3
aI0
aI3
aI3
aI0
aI3
aI3
aI2
aI1
aI3
aI2
aI3
aI0
aI3
aI2
aI2
aI1
aI2
aI2
aI3
aI1
aI2
aI3
aI0
aI1
aI0
aI3
aI2
aI1
aI0
aI1
aI2
aI3
aI1
aI3
aI3
aI1
aI3
aI3
aI3
aI0
aI3
aI2
aI3
aI0
aI3
aI3
aI2
aI3
aI0
aI3
aI3
aI2
aI0
aI2
aI2
aI0
aI2
aI3
aI1
aI2
aI1
aI3
aI0
aa(lp33
I3
aI0
aI3
aI3
aI1
aI1
aI3
aI3
aI1
aI0
aI0
aI2
aI1
aI2
aI2
aI3
aI3
aI2
aI2
aI0
aI0
aI0
aI3
aI0
aI1
aI2
aI3
aI0
aI3
aI0
aI2
aI3
aI2
aI1
aI3
aI3
aI2
aI2
aI2
aI2
aI3
aI2
aI3
aI2
aI1
aI2
aI0
aI3
aI3
aI1
aI0
aI3
aI1
aI2
aI3
aI3
aI2
aI3
aI1
aI2
aI1
aI1
aI0
aI2
aI3
aI1
aI0
aI2
aI2
aI1
aI3
aI0
aI2
aI0
aI2
aI3
aI1
aI1
aI2
aI2
aI1
aI3
aI3
aI1
aI1
aI1
aI2
aI0
aI0
aI1
aI2
aI3
aI0
aI0
aI0
aI1
aI1
aI1
aI2
aI2
aa(lp34
I1
aI2
aI2
aI1
aI1
aI1
aI1
aI3
aI3
aI0
aI1
aI0
aI3
aI0
aI2
aI2
aI1
aI2
aI0
aI0
aI0
aI1
aI3
aI0
aI2
aI3
aI3
aI1
aI1
aI1
aI1
aI3
aI2
aI3
aI2
aI1
aI0
aI0
aI3
aI0
aI1
aI0
aI0
aI1
aI2
aI3
aI2
aI1
aI1
aI1
aI2
aI3
aI0
aI0
aI1
aI2
aI3
aI2
aI0
aI1
aI2
aI1
aI1
aI1
aI2
aI2
aI3
aI1
aI2
aI2
aI3
aI0
aI2
aI3
aI3
aI3
aI0
aI0
aI0
aI1
aI1
aI3
aI0
aI3
aI2
aI2
aI2
aI1
aI1
aI1
aI0
aI2
aI2
aI3
aI1
aI0
aI2
aI1
aI2
aI1
aa(lp35
I3
aI2
aI2
aI2
aI2
aI0
aI0
aI0
aI0
aI0
aI1
aI3
aI2
aI0
aI2
aI0
aI3
aI3
aI3
aI1
aI1
aI3
aI0
aI2
aI0
aI1
aI1
aI1
aI3
aI3
aI0
aI0
aI1
aI2
aI1
aI0
aI2
aI2
aI0
aI3
aI2
aI2
aI0
aI3
aI3
aI2
aI2
aI3
aI3
aI0
aI1
aI0
aI3
aI1
aI1
aI3
aI3
aI1
aI2
aI1
aI2
aI0
aI1
aI2
aI1
aI2
aI3
aI3
aI3
aI1
aI2
aI3
aI3
aI1
aI2
aI3
aI2
aI0
aI1
aI3
aI3
aI1
aI3
aI2
aI3
aI0
aI2
aI0
aI3
aI0
aI2
aI0
aI1
aI0
aI3
aI2
aI2
aI0
aI1
aI1
aa(lp36
I1
aI3
aI2
aI1
aI3
aI3
aI3
aI3
aI2
aI1
aI2
aI0
aI1
aI0
aI1
aI2
aI0
aI1
aI0
aI1
aI0
aI3
aI0
aI0
aI1
aI2
aI1
aI3
aI1
aI2
aI3
aI1
aI1
aI1
aI0
aI0
aI2
aI3
aI2
aI2
aI3
aI3
aI2
aI3
aI1
aI1
aI0
aI3
aI2
aI0
aI1
aI3
aI0
aI1
aI3
aI3
aI3
aI3
aI2
aI1
aI0
aI2
aI2
aI0
aI2
aI2
aI1
aI2
aI0
aI1
aI1
aI3
aI2
aI2
aI1
aI1
aI0
aI3
aI3
aI3
aI2
aI2
aI3
aI1
aI3
aI2
aI1
aI3
aI3
aI2
aI2
aI3
aI0
aI0
aI0
aI3
aI3
aI3
aI3
aI1
aa(lp37
I3
aI1
aI1
aI0
aI3
aI1
aI3
aI0
aI0
aI2
aI3
aI1
aI2
aI3
aI1
aI3
aI0
aI0
aI3
aI0
aI3
aI0
aI0
aI3
aI1
aI1
aI0
aI0
aI3
aI0
aI0
aI3
aI2
aI1
aI1
aI0
aI2
aI0
aI3
aI3
aI0
aI3
aI3
aI2
aI3
aI0
aI0
aI2
aI3
aI1
aI1
aI1
aI2
aI0
aI0
aI0
aI3
aI3
aI1
aI3
aI0
aI0
aI0
aI3
aI1
aI0
aI0
aI0
aI1
aI0
aI2
aI0
aI2
aI0
aI2
aI3
aI2
aI3
aI1
aI0
aI0
aI2
aI2
aI3
aI1
aI3
aI2
aI1
aI0
aI0
aI1
aI3
aI1
aI0
aI2
aI3
aI2
aI1
aI3
aI0
aa(lp38
I1
aI3
aI3
aI3
aI0
aI0
aI1
aI0
aI0
aI0
aI3
aI3
aI2
aI3
aI0
aI3
aI3
aI2
aI2
aI0
aI2
aI0
aI0
aI0
aI2
aI2
aI1
aI1
aI0
aI1
aI2
aI3
aI1
aI2
aI1
aI3
aI3
aI1
aI0
aI0
aI3
aI1
aI1
aI0
aI2
aI3
aI1
aI3
aI0
aI2
aI2
aI2
aI3
aI2
aI2
aI3
aI2
aI2
aI3
aI3
aI3
aI2
aI1
aI3
aI3
aI2
aI0
aI0
aI3
aI3
aI0
aI2
aI0
aI0
aI0
aI1
aI1
aI2
aI2
aI3
aI0
aI0
aI2
aI3
aI1
aI2
aI1
aI0
aI2
aI3
aI3
aI0
aI1
aI1
aI0
aI2
aI0
aI0
aI2
aI0
aa(lp39
I0
aI1
aI2
aI3
aI0
aI1
aI3
aI0
aI2
aI1
aI1
aI2
aI1
aI3
aI3
aI3
aI3
aI0
aI3
aI1
aI3
aI3
aI2
aI2
aI3
aI2
aI2
aI3
aI3
aI0
aI1
aI0
aI0
aI3
aI1
aI3
aI1
aI2
aI0
aI1
aI0
aI1
aI3
aI1
aI0
aI0
aI3
aI3
aI0
aI2
aI3
aI1
aI3
aI2
aI3
aI3
aI0
aI2
aI2
aI0
aI0
aI1
aI1
aI0
aI2
aI0
aI2
aI2
aI3
aI1
aI3
aI2
aI3
aI0
aI3
aI0
aI2
aI1
aI0
aI2
aI0
aI2
aI0
aI1
aI0
aI0
aI0
aI1
aI3
aI3
aI2
aI1
aI0
aI0
aI3
aI0
aI0
aI2
aI2
aI3
aa(lp40
I2
aI2
aI3
aI3
aI2
aI2
aI0
aI3
aI2
aI1
aI3
aI1
aI1
aI0
aI0
aI2
aI2
aI1
aI3
aI1
aI3
aI1
aI0
aI3
aI1
aI1
aI2
aI2
aI0
aI2
aI0
aI2
aI3
aI2
aI3
aI1
aI2
aI3
aI3
aI2
aI2
aI0
aI0
aI2
aI1
aI3
aI2
aI0
aI3
aI2
aI1
aI1
aI0
aI0
aI1
aI0
aI3
aI2
aI1
aI0
aI3
aI3
aI2
aI2
aI3
aI0
aI0
aI0
aI0
aI2
aI0
aI3
aI2
aI2
aI0
aI0
aI3
aI3
aI1
aI3
aI2
aI2
aI1
aI0
aI2
aI0
aI3
aI1
aI1
aI2
aI2
aI1
aI3
aI1
aI3
aI2
aI2
aI1
aI3
aI0
aa(lp41
I0
aI0
aI1
aI3
aI1
aI1
aI1
aI3
aI0
aI1
aI1
aI2
aI0
aI3
aI3
aI0
aI3
aI2
aI0
aI3
aI2
aI0
aI2
aI0
aI2
aI1
aI2
aI3
aI3
aI1
aI0
aI0
aI0
aI0
aI2
aI2
aI0
aI1
aI0
aI2
aI0
aI0
aI3
aI0
aI2
aI0
aI3
aI3
aI1
aI2
aI2
aI0
aI1
aI1
aI3
aI2
aI0
aI3
aI2
aI1
aI2
aI3
aI1
aI0
aI0
aI0
aI2
aI2
aI0
aI2
aI0
aI0
aI1
aI2
aI3
aI1
aI0
aI1
aI3
aI1
aI2
aI0
aI1
aI1
aI2
aI3
aI3
aI3
aI2
aI0
aI1
aI0
aI3
aI1
aI1
aI0
aI2
aI1
aI0
aI1
aa(lp42
I1
aI3
aI3
aI2
aI3
aI3
aI1
aI0
aI0
aI0
aI1
aI3
aI0
aI3
aI3
aI1
aI1
aI0
aI3
aI2
aI1
aI1
aI2
aI1
aI0
aI0
aI1
aI3
aI1
aI2
aI0
aI0
aI2
aI3
aI1
aI2
aI2
aI1
aI1
aI1
aI3
aI3
aI3
aI0
aI0
aI0
aI0
aI3
aI1
aI3
aI3
aI3
aI1
aI2
aI1
aI3
aI3
aI1
aI2
aI2
aI3
aI0
aI1
aI0
aI3
aI3
aI3
aI3
aI2
aI3
aI2
aI0
aI1
aI2
aI1
aI0
aI3
aI1
aI3
aI0
aI1
aI3
aI1
aI1
aI0
aI3
aI2
aI2
aI3
aI1
aI2
aI3
aI3
aI2
aI1
aI1
aI0
aI3
aI0
aI1
aa(lp43
I0
aI2
aI3
aI1
aI2
aI0
aI3
aI2
aI1
aI0
aI1
aI1
aI0
aI3
aI3
aI1
aI0
aI3
aI3
aI0
aI1
aI2
aI0
aI0
aI0
aI2
aI3
aI1
aI1
aI2
aI3
aI1
aI2
aI3
aI3
aI2
aI1
aI1
aI0
aI1
aI1
aI3
aI0
aI1
aI0
aI0
aI2
aI0
aI2
aI1
aI3
aI1
aI1
aI0
aI2
aI3
aI0
aI2
aI1
aI1
aI3
aI0
aI1
aI3
aI0
aI0
aI1
aI2
aI3
aI3
aI1
aI2
aI3
aI0
aI1
aI2
aI1
aI2
aI3
aI3
aI1
aI1
aI0
aI3
aI2
aI2
aI2
aI2
aI2
aI0
aI1
aI0
aI0
aI3
aI0
aI1
aI2
aI3
aI0
aI1
aa(lp44
I1
aI2
aI0
aI1
aI2
aI1
aI3
aI1
aI2
aI1
aI3
aI3
aI3
aI3
aI0
aI0
aI2
aI2
aI1
aI3
aI3
aI0
aI3
aI0
aI0
aI2
aI1
aI3
aI2
aI3
aI3
aI1
aI0
aI2
aI0
aI0
aI1
aI1
aI3
aI2
aI3
aI3
aI3
aI0
aI2
aI3
aI1
aI0
aI3
aI3
aI3
aI1
aI2
aI2
aI2
aI3
aI2
aI2
aI0
aI1
aI0
aI3
aI3
aI1
aI0
aI3
aI1
aI1
aI2
aI1
aI1
aI1
aI0
aI1
aI1
aI2
aI1
aI0
aI1
aI0
aI2
aI1
aI0
aI0
aI2
aI3
aI3
aI3
aI0
aI0
aI0
aI1
aI3
aI3
aI3
aI3
aI2
aI0
aI3
aI3
aa(lp45
I3
aI0
aI2
aI3
aI2
aI1
aI1
aI3
aI0
aI2
aI1
aI2
aI0
aI2
aI0
aI2
aI3
aI2
aI2
aI0
aI3
aI3
aI1
aI1
aI2
aI0
aI3
aI0
aI2
aI2
aI2
aI0
aI2
aI2
aI2
aI1
aI3
aI1
aI2
aI2
aI3
aI0
aI0
aI2
aI1
aI1
aI3
aI3
aI0
aI2
aI0
aI1
aI2
aI0
aI1
aI2
aI3
aI3
aI1
aI0
aI2
aI0
aI0
aI2
aI0
aI2
aI3
aI2
aI3
aI1
aI3
aI2
aI2
aI0
aI0
aI0
aI2
aI2
aI1
aI3
aI0
aI3
aI2
aI0
aI1
aI3
aI3
aI1
aI1
aI2
aI3
aI0
aI2
aI2
aI2
aI2
aI0
aI1
aI2
aI3
aa(lp46
I2
aI0
aI2
aI0
aI1
aI3
aI3
aI1
aI3
aI0
aI1
aI0
aI1
aI1
aI2
aI3
aI2
aI1
aI3
aI1
aI1
aI3
aI3
aI2
aI0
aI0
aI1
aI0
aI1
aI2
aI1
aI0
aI3
aI1
aI3
aI3
aI3
aI1
aI2
aI3
aI1
aI2
aI2
aI1
aI3
aI0
aI2
aI1
aI0
aI3
aI3
aI0
aI0
aI0
aI3
aI1
aI1
aI3
aI3
aI1
aI0
aI3
aI2
aI2
aI1
aI2
aI1
aI2
aI1
aI0
aI2
aI3
aI1
aI3
aI1
aI0
aI2
aI1
aI0
aI1
aI1
aI1
aI0
aI0
aI2
aI1
aI1
aI1
aI3
aI0
aI3
aI1
aI3
aI3
aI3
aI1
aI2
aI3
aI1
aI3
aa(lp47
I3
aI3
aI3
aI3
aI2
aI2
aI3
aI1
aI0
aI2
aI3
aI3
aI0
aI0
aI3
aI3
aI2
aI3
aI1
aI3
aI0
aI2
aI2
aI0
aI1
aI1
aI3
aI1
aI2
aI0
aI1
aI2
aI1
aI0
aI0
aI2
aI3
aI1
aI3
aI2
aI3
aI2
aI2
aI2
aI1
aI1
aI3
aI3
aI0
aI2
aI1
aI0
aI0
aI2
aI2
aI3
aI0
aI3
aI1
aI2
aI0
aI2
aI0
aI1
aI2
aI2
aI2
aI3
aI3
aI2
aI2
aI0
aI2
aI0
aI0
aI0
aI0
aI0
aI3
aI3
aI3
aI1
aI0
aI0
aI3
aI3
aI2
aI1
aI2
aI2
aI3
aI2
aI1
aI1
aI0
aI2
aI1
aI3
aI0
aI0
aa(lp48
I3
aI1
aI0
aI2
aI3
aI1
aI1
aI0
aI3
aI2
aI2
aI3
aI1
aI0
aI2
aI3
aI0
aI2
aI3
aI0
aI0
aI3
aI3
aI2
aI0
aI2
aI2
aI0
aI2
aI0
aI2
aI3
aI3
aI1
aI1
aI1
aI2
aI1
aI3
aI2
aI2
aI0
aI1
aI2
aI2
aI0
aI2
aI3
aI2
aI0
aI0
aI2
aI2
aI2
aI1
aI0
aI3
aI2
aI0
aI2
aI0
aI1
aI1
aI3
aI1
aI0
aI0
aI0
aI1
aI1
aI2
aI1
aI0
aI1
aI3
aI0
aI0
aI3
aI3
aI2
aI2
aI2
aI1
aI3
aI3
aI3
aI0
aI1
aI0
aI2
aI0
aI2
aI3
aI3
aI0
aI3
aI3
aI3
aI1
aI1
aa(lp49
I3
aI3
aI0
aI0
aI2
aI3
aI0
aI2
aI2
aI0
aI0
aI3
aI3
aI2
aI2
aI1
aI2
aI2
aI3
aI1
aI0
aI1
aI0
aI3
aI0
aI3
aI3
aI3
aI3
aI3
aI2
aI3
aI2
aI3
aI2
aI1
aI1
aI1
aI0
aI3
aI1
aI3
aI3
aI3
aI3
aI3
aI1
aI2
aI3
aI1
aI2
aI0
aI1
aI0
aI0
aI2
aI1
aI2
aI2
aI0
aI2
aI0
aI3
aI2
aI3
aI0
aI2
aI0
aI2
aI3
aI0
aI0
aI1
aI3
aI1
aI1
aI0
aI1
aI0
aI2
aI2
aI3
aI2
aI2
aI3
aI1
aI3
aI0
aI3
aI3
aI2
aI2
aI2
aI1
aI2
aI0
aI2
aI1
aI0
aI2
aa(lp50
I1
aI3
aI1
aI1
aI3
aI3
aI0
aI3
aI2
aI3
aI1
aI1
aI0
aI1
aI2
aI2
aI1
aI3
aI2
aI3
aI3
aI1
aI1
aI1
aI3
aI0
aI3
aI3
aI3
aI3
aI1
aI2
aI0
aI2
aI3
aI2
aI0
aI3
aI0
aI0
aI1
aI1
aI3
aI0
aI2
aI2
aI1
aI3
aI1
aI3
aI1
aI0
aI2
aI0
aI0
aI1
aI3
aI0
aI2
aI1
aI1
aI1
aI1
aI2
aI2
aI0
aI1
aI3
aI3
aI1
aI2
aI2
aI0
aI1
aI3
aI1
aI0
aI3
aI1
aI2
aI3
aI1
aI1
aI2
aI2
aI2
aI1
aI0
aI0
aI1
aI0
aI3
aI3
aI1
aI3
aI0
aI0
aI3
aI2
aI2
aa(lp51
I1
aI2
aI1
aI1
aI2
aI1
aI0
aI3
aI3
aI2
aI3
aI3
aI1
aI3
aI0
aI2
aI2
aI3
aI2
aI0
aI1
aI1
aI2
aI0
aI1
aI2
aI3
aI3
aI0
aI2
aI1
aI1
aI3
aI0
aI3
aI2
aI2
aI0
aI3
aI2
aI2
aI3
aI1
aI3
aI1
aI1
aI0
aI1
aI0
aI0
aI0
aI2
aI3
aI2
aI3
aI3
aI1
aI0
aI1
aI0
aI1
aI0
aI2
aI0
aI3
aI3
aI0
aI0
aI1
aI2
aI0
aI3
aI1
aI0
aI3
aI3
aI0
aI3
aI0
aI3
aI0
aI2
aI1
aI3
aI1
aI0
aI2
aI2
aI0
aI1
aI3
aI2
aI0
aI0
aI2
aI0
aI3
aI0
aI0
aI2
aa(lp52
I1
aI1
aI1
aI0
aI3
aI0
aI1
aI0
aI1
aI1
aI0
aI1
aI1
aI1
aI0
aI0
aI3
aI0
aI1
aI2
aI0
aI0
aI1
aI3
aI3
aI1
aI0
aI1
aI1
aI1
aI3
aI2
aI0
aI2
aI2
aI3
aI2
aI0
aI0
aI1
aI0
aI0
aI2
aI2
aI2
aI0
aI1
aI3
aI0
aI0
aI2
aI2
aI3
aI2
aI1
aI1
aI1
aI2
aI2
aI1
aI3
aI2
aI1
aI2
aI1
aI1
aI3
aI3
aI0
aI2
aI2
aI1
aI2
aI0
aI1
aI0
aI2
aI0
aI3
aI2
aI3
aI1
aI3
aI3
aI3
aI3
aI0
aI1
aI3
aI2
aI1
aI3
aI0
aI0
aI0
aI0
aI3
aI1
aI3
aI0
aa(lp53
I2
aI3
aI0
aI0
aI2
aI0
aI2
aI1
aI1
aI2
aI0
aI2
aI0
aI3
aI2
aI2
aI3
aI3
aI2
aI2
aI3
aI3
aI2
aI2
aI1
aI3
aI0
aI2
aI3
aI3
aI3
aI2
aI2
aI3
aI0
aI3
aI3
aI2
aI2
aI2
aI2
aI1
aI1
aI2
aI2
aI0
aI3
aI2
aI2
aI2
aI3
aI1
aI3
aI2
aI1
aI2
aI0
aI1
aI2
aI2
aI0
aI0
aI3
aI2
aI0
aI3
aI0
aI0
aI3
aI1
aI2
aI1
aI0
aI1
aI0
aI1
aI1
aI1
aI3
aI1
aI0
aI0
aI1
aI0
aI1
aI1
aI3
aI2
aI1
aI2
aI3
aI0
aI2
aI1
aI1
aI0
aI1
aI2
aI0
aI1
aa(lp54
I2
aI0
aI1
aI0
aI3
aI0
aI1
aI3
aI1
aI1
aI3
aI3
aI3
aI1
aI2
aI0
aI3
aI3
aI0
aI2
aI1
aI3
aI3
aI1
aI0
aI3
aI1
aI2
aI0
aI1
aI0
aI2
aI2
aI2
aI1
aI1
aI3
aI0
aI1
aI3
aI1
aI0
aI1
aI1
aI1
aI2
aI1
aI3
aI0
aI1
aI2
aI2
aI3
aI3
aI3
aI3
aI2
aI3
aI1
aI3
aI2
aI1
aI1
aI2
aI1
aI3
aI0
aI3
aI3
aI1
aI0
aI0
aI3
aI3
aI3
aI3
aI0
aI1
aI2
aI0
aI3
aI0
aI2
aI3
aI1
aI1
aI1
aI1
aI1
aI1
aI0
aI1
aI1
aI3
aI1
aI3
aI3
aI2
aI3
aI2
aa(lp55
I2
aI1
aI0
aI3
aI2
aI3
aI2
aI3
aI0
aI1
aI0
aI2
aI3
aI0
aI1
aI2
aI2
aI0
aI1
aI2
aI2
aI1
aI3
aI0
aI2
aI1
aI3
aI0
aI3
aI2
aI1
aI1
aI3
aI2
aI1
aI0
aI2
aI2
aI3
aI3
aI3
aI2
aI3
aI2
aI3
aI0
aI3
aI3
aI3
aI2
aI2
aI1
aI0
aI2
aI2
aI2
aI0
aI0
aI3
aI0
aI0
aI2
aI3
aI1
aI2
aI0
aI3
aI0
aI0
aI0
aI3
aI3
aI1
aI1
aI3
aI3
aI3
aI3
aI1
aI1
aI0
aI0
aI2
aI3
aI2
aI0
aI3
aI0
aI2
aI3
aI2
aI1
aI3
aI1
aI2
aI0
aI0
aI2
aI3
aI0
aa(lp56
I3
aI2
aI0
aI0
aI3
aI1
aI2
aI1
aI3
aI2
aI2
aI2
aI1
aI3
aI3
aI2
aI0
aI3
aI2
aI1
aI3
aI1
aI2
aI2
aI0
aI2
aI0
aI1
aI0
aI1
aI1
aI3
aI3
aI2
aI3
aI3
aI3
aI2
aI3
aI1
aI3
aI1
aI0
aI0
aI0
aI2
aI1
aI2
aI0
aI2
aI3
aI3
aI0
aI0
aI1
aI1
aI1
aI2
aI1
aI2
aI2
aI2
aI3
aI2
aI2
aI0
aI3
aI2
aI0
aI1
aI0
aI1
aI3
aI2
aI3
aI0
aI1
aI2
aI0
aI0
aI0
aI2
aI0
aI0
aI3
aI2
aI2
aI0
aI1
aI0
aI0
aI1
aI2
aI3
aI0
aI2
aI3
aI1
aI1
aI1
aa(lp57
I2
aI0
aI1
aI2
aI1
aI2
aI2
aI3
aI1
aI2
aI1
aI0
aI0
aI1
aI3
aI2
aI0
aI1
aI1
aI2
aI3
aI2
aI3
aI0
aI1
aI0
aI0
aI2
aI2
aI3
aI0
aI0
aI1
aI1
aI1
aI3
aI2
aI1
aI1
aI3
aI0
aI1
aI0
aI2
aI1
aI2
aI3
aI3
aI1
aI2
aI1
aI0
aI3
aI0
aI0
aI3
aI3
aI0
aI0
aI1
aI3
aI3
aI1
aI2
aI2
aI3
aI2
aI2
aI2
aI3
aI0
aI3
aI1
aI2
aI2
aI2
aI3
aI3
aI3
aI0
aI3
aI0
aI2
aI2
aI2
aI2
aI2
aI0
aI0
aI3
aI3
aI3
aI3
aI1
aI3
aI3
aI2
aI2
aI2
aI0
aa(lp58
I0
aI0
aI0
aI1
aI2
aI1
aI3
aI3
aI0
aI2
aI3
aI1
aI1
aI2
aI1
aI0
aI2
aI1
aI0
aI0
aI3
aI0
aI3
aI2
aI3
aI1
aI1
aI2
aI3
aI2
aI1
aI2
aI0
aI0
aI3
aI1
aI0
aI1
aI3
aI1
aI0
aI2
aI1
aI1
aI1
aI3
aI1
aI1
aI3
aI1
aI1
aI3
aI3
aI0
aI3
aI1
aI3
aI0
aI0
aI3
aI3
aI2
aI2
aI3
aI3
aI2
aI0
aI2
aI2
aI0
aI2
aI0
aI0
aI3
aI1
aI0
aI3
aI0
aI3
aI2
aI3
aI2
aI0
aI1
aI0
aI1
aI1
aI2
aI1
aI2
aI1
aI2
aI3
aI2
aI2
aI0
aI3
aI1
aI1
aI3
aa(lp59
I3
aI0
aI3
aI0
aI1
aI1
aI1
aI2
aI0
aI3
aI1
aI0
aI3
aI3
aI0
aI2
aI0
aI2
aI3
aI0
aI0
aI1
aI0
aI2
aI3
aI2
aI2
aI0
aI2
aI3
aI0
aI1
aI1
aI2
aI1
aI0
aI1
aI3
aI3
aI3
aI2
aI1
aI3
aI3
aI3
aI0
aI2
aI0
aI2
aI1
aI2
aI3
aI2
aI3
aI1
aI3
aI3
aI0
aI1
aI2
aI0
aI1
aI0
aI0
aI3
aI1
aI0
aI2
aI3
aI0
aI1
aI0
aI1
aI2
aI0
aI2
aI0
aI3
aI1
aI0
aI3
aI1
aI1
aI1
aI3
aI3
aI2
aI1
aI0
aI0
aI2
aI3
aI3
aI0
aI1
aI2
aI0
aI0
aI1
aI3
aa(lp60
I1
aI3
aI3
aI1
aI0
aI1
aI1
aI3
aI2
aI3
aI2
aI1
aI2
aI1
aI0
aI1
aI2
aI1
aI0
aI3
aI3
aI0
aI0
aI1
aI3
aI2
aI0
aI3
aI0
aI3
aI1
aI0
aI2
aI3
aI0
aI1
aI1
aI1
aI2
aI1
aI1
aI1
aI2
aI0
aI1
aI1
aI3
aI2
aI0
aI0
aI1
aI1
aI0
aI3
aI2
aI0
aI0
aI0
aI0
aI2
aI1
aI0
aI0
aI3
aI0
aI1
aI2
aI2
aI3
aI2
aI2
aI1
aI2
aI3
aI1
aI1
aI2
aI2
aI0
aI2
aI2
aI3
aI2
aI3
aI1
aI1
aI3
aI3
aI0
aI1
aI0
aI0
aI3
aI0
aI3
aI3
aI2
aI3
aI2
aI0
aa(lp61
I0
aI1
aI2
aI2
aI1
aI3
aI1
aI0
aI3
aI2
aI1
aI2
aI1
aI0
aI2
aI1
aI1
aI3
aI0
aI1
aI1
aI2
aI1
aI0
aI2
aI0
aI3
aI3
aI0
aI2
aI3
aI3
aI2
aI0
aI2
aI0
aI0
aI1
aI0
aI0
aI1
aI1
aI2
aI1
aI0
aI2
aI2
aI0
aI0
aI2
aI2
aI3
aI3
aI2
aI2
aI1
aI3
aI1
aI3
aI2
aI1
aI0
aI3
aI0
aI3
aI3
aI3
aI0
aI1
aI3
aI3
aI0
aI0
aI0
aI2
aI2
aI1
aI3
aI1
aI1
aI0
aI2
aI2
aI2
aI3
aI2
aI3
aI1
aI3
aI1
aI0
aI0
aI2
aI1
aI1
aI0
aI0
aI1
aI0
aI2
aa(lp62
I3
aI1
aI2
aI2
aI1
aI1
aI0
aI3
aI0
aI1
aI2
aI3
aI1
aI3
aI2
aI0
aI2
aI2
aI2
aI1
aI2
aI1
aI2
aI2
aI0
aI1
aI2
aI2
aI1
aI0
aI2
aI0
aI1
aI2
aI1
aI0
aI0
aI0
aI3
aI2
aI3
aI0
aI2
aI3
aI1
aI3
aI3
aI3
aI3
aI1
aI2
aI3
aI1
aI0
aI3
aI2
aI2
aI3
aI3
aI2
aI0
aI0
aI3
aI1
aI0
aI2
aI3
aI3
aI2
aI3
aI1
aI3
aI0
aI1
aI2
aI2
aI0
aI0
aI3
aI2
aI0
aI2
aI1
aI0
aI3
aI1
aI3
aI2
aI2
aI2
aI0
aI2
aI1
aI2
aI0
aI2
aI3
aI2
aI3
aI0
aa(lp63
I0
aI0
aI2
aI3
aI0
aI3
aI2
aI0
aI1
aI0
aI0
aI2
aI2
aI2
aI3
aI0
aI3
aI3
aI1
aI0
aI0
aI3
aI1
aI3
aI3
aI2
aI1
aI2
aI0
aI0
aI3
aI1
aI0
aI0
aI0
aI3
aI3
aI0
aI1
aI2
aI1
aI3
aI3
aI3
aI0
aI0
aI0
aI3
aI2
aI2
aI3
aI2
aI3
aI2
aI2
aI3
aI3
aI0
aI2
aI0
aI1
aI0
aI2
aI2
aI0
aI0
aI1
aI1
aI0
aI3
aI1
aI3
aI2
aI0
aI2
aI0
aI2
aI0
aI3
aI1
aI3
aI2
aI3
aI1
aI1
aI3
aI2
aI2
aI1
aI3
aI2
aI1
aI3
aI1
aI0
aI2
aI0
aI0
aI3
aI1
aa(lp64
I2
aI1
aI3
aI0
aI1
aI2
aI0
aI0
aI1
aI2
aI0
aI3
aI1
aI3
aI3
aI0
aI2
aI3
aI1
aI1
aI1
aI2
aI0
aI1
aI0
aI0
aI0
aI2
aI3
aI0
aI2
aI0
aI1
aI2
aI2
aI0
aI0
aI1
aI2
aI3
aI1
aI1
aI1
aI1
aI3
aI0
aI1
aI1
aI1
aI2
aI2
aI2
aI1
aI0
aI0
aI1
aI1
aI0
aI1
aI1
aI1
aI1
aI2
aI3
aI2
aI2
aI2
aI3
aI2
aI3
aI3
aI1
aI2
aI0
aI1
aI3
aI0
aI3
aI2
aI2
aI1
aI3
aI3
aI2
aI1
aI0
aI0
aI3
aI1
aI3
aI1
aI3
aI1
aI2
aI2
aI0
aI3
aI3
aI0
aI3
aa(lp65
I1
aI2
aI2
aI2
aI2
aI2
aI1
aI1
aI0
aI3
aI2
aI0
aI0
aI0
aI0
aI0
aI2
aI3
aI3
aI1
aI1
aI0
aI3
aI1
aI0
aI0
aI2
aI3
aI3
aI1
aI3
aI2
aI2
aI0
aI3
aI3
aI2
aI1
aI1
aI0
aI0
aI3
aI3
aI3
aI1
aI0
aI3
aI1
aI3
aI1
aI3
aI1
aI0
aI3
aI0
aI3
aI1
aI2
aI2
aI0
aI1
aI1
aI3
aI2
aI0
aI1
aI0
aI0
aI3
aI0
aI0
aI0
aI0
aI2
aI3
aI0
aI3
aI0
aI2
aI1
aI3
aI2
aI2
aI1
aI2
aI0
aI2
aI0
aI3
aI1
aI0
aI1
aI1
aI1
aI2
aI0
aI0
aI3
aI3
aI2
aa(lp66
I1
aI2
aI0
aI2
aI1
aI1
aI2
aI2
aI3
aI3
aI1
aI0
aI1
aI0
aI3
aI1
aI3
aI2
aI1
aI0
aI0
aI0
aI3
aI0
aI0
aI1
aI0
aI0
aI3
aI1
aI0
aI0
aI2
aI0
aI1
aI0
aI0
aI0
aI0
aI3
aI0
aI0
aI0
aI0
aI0
aI2
aI1
aI0
aI2
aI2
aI1
aI1
aI3
aI0
aI0
aI3
aI0
aI1
aI1
aI3
aI0
aI1
aI3
aI0
aI3
aI0
aI0
aI1
aI1
aI3
aI1
aI0
aI3
aI2
aI1
aI1
aI3
aI0
aI1
aI3
aI1
aI2
aI2
aI0
aI3
aI2
aI0
aI2
aI3
aI0
aI2
aI1
aI3
aI3
aI1
aI2
aI1
aI0
aI0
aI3
aa(lp67
I3
aI0
aI0
aI0
aI2
aI1
aI1
aI3
aI0
aI3
aI0
aI2
aI1
aI1
aI2
aI1
aI2
aI2
aI3
aI2
aI2
aI2
aI0
aI1
aI1
aI2
aI1
aI3
aI3
aI0
aI0
aI0
aI0
aI1
aI3
aI3
aI3
aI1
aI0
aI2
aI2
aI1
aI2
aI0
aI3
aI2
aI0
aI3
aI2
aI1
aI1
aI3
aI1
aI3
aI2
aI0
aI2
aI0
aI0
aI0
aI2
aI1
aI0
aI2
aI0
aI1
aI0
aI1
aI1
aI1
aI2
aI1
aI3
aI2
aI3
aI0
aI0
aI3
aI2
aI1
aI0
aI0
aI0
aI1
aI0
aI1
aI1
aI2
aI1
aI1
aI2
aI1
aI1
aI1
aI0
aI0
aI3
aI0
aI0
aI0
aa(lp68
I3
aI3
aI0
aI3
aI3
aI0
aI0
aI0
aI2
aI2
aI0
aI0
aI1
aI0
aI3
aI1
aI2
aI1
aI2
aI1
aI3
aI0
aI3
aI3
aI3
aI1
aI1
aI2
aI2
aI1
aI3
aI3
aI3
aI1
aI2
aI1
aI0
aI0
aI0
aI3
aI1
aI1
aI3
aI2
aI3
aI2
aI2
aI0
aI0
aI2
aI1
aI0
aI1
aI1
aI1
aI2
aI0
aI2
aI1
aI2
aI1
aI1
aI2
aI2
aI1
aI1
aI1
aI1
aI3
aI2
aI0
aI1
aI1
aI0
aI0
aI1
aI1
aI2
aI1
aI1
aI0
aI0
aI2
aI2
aI3
aI2
aI3
aI1
aI2
aI3
aI3
aI3
aI0
aI1
aI0
aI3
aI3
aI2
aI1
aI1
aa(lp69
I2
aI1
aI3
aI1
aI1
aI3
aI0
aI3
aI0
aI1
aI1
aI1
aI1
aI3
aI2
aI2
aI2
aI2
aI2
aI1
aI0
aI3
aI3
aI1
aI1
aI0
aI0
aI0
aI0
aI1
aI1
aI3
aI3
aI3
aI2
aI1
aI1
aI1
aI1
aI0
aI2
aI0
aI0
aI1
aI0
aI1
aI2
aI0
aI2
aI1
aI1
aI3
aI1
aI2
aI3
aI2
aI0
aI0
aI2
aI1
aI3
aI3
aI0
aI2
aI1
aI1
aI3
aI3
aI3
aI1
aI0
aI0
aI1
aI2
aI3
aI3
aI2
aI3
aI1
aI3
aI0
aI0
aI2
aI1
aI3
aI2
aI1
aI2
aI2
aI1
aI1
aI0
aI0
aI1
aI3
aI1
aI3
aI0
aI0
aI1
aa(lp70
I1
aI3
aI1
aI2
aI2
aI2
aI1
aI0
aI3
aI2
aI1
aI2
aI0
aI1
aI0
aI2
aI1
aI1
aI0
aI3
aI1
aI0
aI0
aI2
aI0
aI1
aI1
aI2
aI0
aI1
aI1
aI1
aI0
aI0
aI2
aI2
aI0
aI2
aI1
aI1
aI1
aI1
aI3
aI2
aI1
aI0
aI1
aI0
aI0
aI0
aI0
aI2
aI3
aI0
aI1
aI1
aI3
aI0
aI3
aI0
aI0
aI0
aI0
aI3
aI0
aI2
aI1
aI0
aI1
aI3
aI3
aI1
aI3
aI0
aI2
aI1
aI2
aI1
aI2
aI3
aI3
aI1
aI1
aI0
aI3
aI3
aI1
aI0
aI3
aI3
aI0
aI1
aI0
aI0
aI2
aI1
aI3
aI2
aI1
aI1
aa(lp71
I1
aI3
aI3
aI2
aI3
aI1
aI3
aI3
aI3
aI3
aI0
aI1
aI0
aI2
aI3
aI3
aI0
aI3
aI0
aI3
aI1
aI3
aI2
aI0
aI2
aI3
aI3
aI2
aI0
aI0
aI1
aI1
aI3
aI2
aI1
aI3
aI1
aI2
aI1
aI0
aI1
aI1
aI3
aI2
aI0
aI1
aI2
aI3
aI2
aI0
aI3
aI2
aI3
aI2
aI3
aI0
aI2
aI3
aI3
aI2
aI0
aI2
aI2
aI2
aI3
aI0
aI3
aI2
aI2
aI0
aI2
aI1
aI0
aI2
aI2
aI3
aI1
aI3
aI3
aI0
aI0
aI2
aI0
aI0
aI1
aI1
aI0
aI1
aI2
aI2
aI3
aI2
aI3
aI0
aI0
aI0
aI0
aI2
aI2
aI0
aa(lp72
I3
aI1
aI1
aI0
aI3
aI2
aI3
aI2
aI1
aI0
aI2
aI2
aI0
aI1
aI1
aI3
aI1
aI3
aI1
aI0
aI1
aI1
aI2
aI1
aI0
aI1
aI3
aI0
aI3
aI0
aI2
aI1
aI0
aI0
aI1
aI1
aI0
aI0
aI3
aI1
aI2
aI1
aI0
aI0
aI3
aI1
aI2
aI2
aI2
aI1
aI1
aI1
aI3
aI0
aI2
aI2
aI2
aI2
aI0
aI1
aI0
aI0
aI1
aI1
aI3
aI1
aI1
aI3
aI2
aI3
aI3
aI3
aI2
aI2
aI2
aI3
aI2
aI2
aI3
aI2
aI3
aI3
aI1
aI2
aI1
aI3
aI3
aI1
aI3
aI0
aI3
aI2
aI2
aI0
aI1
aI3
aI3
aI0
aI2
aI2
aa(lp73
I2
aI1
aI1
aI3
aI3
aI2
aI0
aI2
aI1
aI2
aI1
aI1
aI3
aI1
aI0
aI3
aI1
aI3
aI0
aI1
aI3
aI0
aI0
aI3
aI0
aI0
aI1
aI1
aI0
aI0
aI1
aI2
aI2
aI0
aI2
aI2
aI3
aI0
aI3
aI1
aI3
aI3
aI0
aI3
aI3
aI0
aI1
aI1
aI0
aI1
aI1
aI0
aI0
aI3
aI1
aI1
aI1
aI0
aI1
aI1
aI2
aI2
aI1
aI0
aI0
aI1
aI2
aI3
aI2
aI3
aI0
aI0
aI2
aI3
aI1
aI1
aI0
aI1
aI2
aI3
aI0
aI1
aI1
aI1
aI3
aI3
aI0
aI3
aI1
aI2
aI3
aI3
aI2
aI3
aI1
aI2
aI1
aI0
aI2
aI3
aa(lp74
I3
aI2
aI1
aI1
aI0
aI0
aI1
aI0
aI0
aI3
aI1
aI0
aI3
aI0
aI0
aI0
aI2
aI2
aI0
aI3
aI3
aI3
aI3
aI0
aI3
aI3
aI1
aI3
aI2
aI2
aI1
aI2
aI1
aI1
aI3
aI0
aI3
aI2
aI0
aI0
aI3
aI3
aI3
aI2
aI2
aI0
aI1
aI3
aI0
aI3
aI3
aI2
aI3
aI1
aI3
aI2
aI1
aI3
aI0
aI1
aI1
aI0
aI0
aI0
aI2
aI2
aI1
aI3
aI1
aI2
aI3
aI1
aI2
aI2
aI3
aI1
aI2
aI0
aI2
aI2
aI3
aI3
aI3
aI1
aI3
aI0
aI1
aI0
aI2
aI0
aI1
aI1
aI2
aI3
aI2
aI0
aI3
aI1
aI1
aI3
aa(lp75
I1
aI0
aI3
aI0
aI3
aI2
aI1
aI1
aI0
aI2
aI0
aI0
aI2
aI0
aI1
aI1
aI2
aI0
aI1
aI3
aI1
aI3
aI0
aI3
aI2
aI0
aI3
aI3
aI1
aI0
aI0
aI2
aI0
aI0
aI0
aI1
aI1
aI3
aI0
aI1
aI3
aI0
aI0
aI2
aI1
aI2
aI1
aI2
aI0
aI3
aI0
aI2
aI3
aI3
aI2
aI2
aI0
aI1
aI2
aI2
aI0
aI3
aI0
aI1
aI3
aI0
aI3
aI3
aI3
aI0
aI1
aI2
aI3
aI2
aI1
aI0
aI1
aI1
aI3
aI1
aI2
aI2
aI2
aI0
aI2
aI3
aI0
aI0
aI1
aI3
aI1
aI3
aI2
aI3
aI1
aI2
aI3
aI3
aI0
aI1
aa(lp76
I1
aI1
aI2
aI3
aI3
aI0
aI3
aI3
aI2
aI1
aI1
aI1
aI0
aI2
aI2
aI2
aI2
aI0
aI0
aI2
aI0
aI3
aI3
aI3
aI3
aI3
aI2
aI0
aI2
aI3
aI2
aI2
aI1
aI2
aI0
aI3
aI0
aI0
aI3
aI2
aI1
aI1
aI0
aI2
aI0
aI0
aI3
aI2
aI2
aI3
aI0
aI1
aI1
aI1
aI1
aI2
aI2
aI3
aI3
aI0
aI0
aI0
aI0
aI0
aI1
aI3
aI3
aI3
aI2
aI1
aI1
aI2
aI3
aI1
aI2
aI1
aI0
aI2
aI2
aI2
aI2
aI3
aI3
aI0
aI0
aI2
aI3
aI1
aI3
aI2
aI3
aI2
aI3
aI1
aI2
aI0
aI0
aI2
aI1
aI0
aa(lp77
I1
aI2
aI0
aI0
aI2
aI1
aI3
aI3
aI2
aI2
aI0
aI0
aI0
aI0
aI2
aI1
aI3
aI1
aI2
aI2
aI0
aI2
aI0
aI1
aI0
aI1
aI3
aI1
aI1
aI3
aI3
aI1
aI1
aI3
aI2
aI0
aI0
aI2
aI3
aI3
aI0
aI2
aI0
aI2
aI2
aI0
aI0
aI2
aI2
aI0
aI0
aI2
aI3
aI3
aI1
aI1
aI1
aI3
aI1
aI1
aI2
aI3
aI0
aI2
aI2
aI1
aI3
aI2
aI0
aI2
aI2
aI0
aI0
aI3
aI1
aI3
aI1
aI2
aI1
aI2
aI2
aI0
aI2
aI3
aI0
aI3
aI3
aI0
aI0
aI1
aI2
aI1
aI0
aI2
aI3
aI3
aI3
aI0
aI1
aI2
aa(lp78
I1
aI2
aI3
aI1
aI3
aI1
aI2
aI2
aI2
aI3
aI1
aI2
aI0
aI3
aI2
aI1
aI1
aI0
aI3
aI0
aI1
aI2
aI1
aI3
aI3
aI2
aI3
aI1
aI2
aI2
aI3
aI0
aI1
aI1
aI3
aI0
aI3
aI3
aI3
aI2
aI1
aI3
aI2
aI0
aI2
aI1
aI3
aI0
aI1
aI2
aI0
aI0
aI2
aI2
aI0
aI3
aI3
aI2
aI0
aI1
aI0
aI0
aI2
aI1
aI0
aI1
aI1
aI2
aI2
aI3
aI3
aI2
aI3
aI2
aI2
aI0
aI2
aI1
aI1
aI0
aI0
aI0
aI3
aI3
aI1
aI0
aI2
aI1
aI2
aI1
aI1
aI2
aI1
aI0
aI3
aI2
aI0
aI2
aI0
aI3
aa(lp79
I2
aI1
aI0
aI2
aI0
aI2
aI1
aI1
aI2
aI1
aI0
aI1
aI0
aI1
aI0
aI3
aI3
aI1
aI3
aI1
aI2
aI3
aI1
aI1
aI3
aI3
aI1
aI1
aI2
aI1
aI0
aI1
aI2
aI1
aI0
aI0
aI3
aI3
aI2
aI3
aI3
aI2
aI0
aI2
aI3
aI0
aI2
aI1
aI0
aI3
aI0
aI0
aI0
aI1
aI1
aI3
aI3
aI3
aI2
aI1
aI2
aI2
aI3
aI2
aI3
aI2
aI0
aI1
aI2
aI3
aI3
aI0
aI2
aI2
aI3
aI2
aI0
aI0
aI2
aI1
aI0
aI1
aI0
aI1
aI2
aI3
aI3
aI0
aI3
aI1
aI2
aI1
aI1
aI2
aI3
aI2
aI0
aI1
aI1
aI3
aa(lp80
I0
aI0
aI1
aI1
aI1
aI3
aI0
aI2
aI1
aI2
aI1
aI1
aI3
aI1
aI0
aI3
aI2
aI1
aI0
aI3
aI3
aI0
aI0
aI1
aI0
aI3
aI2
aI2
aI2
aI3
aI1
aI0
aI0
aI0
aI1
aI3
aI1
aI3
aI3
aI3
aI0
aI0
aI0
aI0
aI3
aI2
aI0
aI0
aI0
aI0
aI2
aI0
aI0
aI1
aI3
aI2
aI1
aI2
aI2
aI3
aI0
aI0
aI1
aI0
aI0
aI0
aI0
aI2
aI0
aI1
aI2
aI0
aI3
aI2
aI1
aI0
aI3
aI0
aI2
aI1
aI0
aI0
aI0
aI1
aI1
aI0
aI0
aI3
aI1
aI0
aI0
aI2
aI3
aI3
aI0
aI0
aI1
aI1
aI2
aI2
aa(lp81
I1
aI2
aI2
aI1
aI3
aI1
aI2
aI1
aI0
aI2
aI3
aI1
aI2
aI3
aI3
aI0
aI3
aI2
aI3
aI2
aI3
aI3
aI0
aI0
aI1
aI0
aI2
aI1
aI0
aI1
aI1
aI2
aI2
aI3
aI3
aI2
aI1
aI1
aI0
aI2
aI0
aI0
aI1
aI0
aI0
aI2
aI1
aI3
aI2
aI3
aI3
aI3
aI2
aI1
aI1
aI2
aI1
aI0
aI2
aI2
aI0
aI0
aI3
aI3
aI0
aI3
aI0
aI3
aI3
aI3
aI2
aI3
aI3
aI0
aI1
aI1
aI2
aI2
aI0
aI3
aI0
aI0
aI1
aI1
aI2
aI2
aI3
aI0
aI2
aI2
aI0
aI0
aI0
aI3
aI1
aI2
aI0
aI1
aI2
aI0
aa(lp82
I0
aI2
aI1
aI3
aI2
aI3
aI2
aI3
aI3
aI0
aI1
aI2
aI0
aI1
aI0
aI3
aI2
aI1
aI1
aI1
aI3
aI3
aI3
aI1
aI0
aI0
aI0
aI0
aI1
aI0
aI3
aI2
aI1
aI1
aI0
aI0
aI3
aI2
aI0
aI3
aI0
aI0
aI3
aI2
aI1
aI3
aI0
aI0
aI0
aI0
aI3
aI2
aI1
aI3
aI0
aI2
aI1
aI2
aI2
aI3
aI0
aI1
aI1
aI1
aI2
aI0
aI0
aI2
aI3
aI0
aI2
aI3
aI1
aI3
aI0
aI1
aI2
aI0
aI0
aI2
aI0
aI3
aI3
aI2
aI3
aI3
aI3
aI1
aI0
aI2
aI1
aI0
aI0
aI1
aI1
aI1
aI3
aI0
aI0
aI3
aa(lp83
I3
aI1
aI1
aI1
aI3
aI0
aI1
aI1
aI3
aI0
aI1
aI2
aI1
aI0
aI1
aI2
aI0
aI1
aI0
aI0
aI2
aI2
aI3
aI3
aI1
aI1
aI3
aI3
aI2
aI0
aI2
aI2
aI3
aI1
aI1
aI3
aI1
aI1
aI3
aI0
aI3
aI1
aI2
aI2
aI2
aI3
aI0
aI3
aI2
aI2
aI0
aI0
aI1
aI3
aI2
aI1
aI3
aI2
aI2
aI3
aI1
aI1
aI1
aI0
aI3
aI3
aI2
aI0
aI3
aI1
aI2
aI3
aI0
aI2
aI2
aI2
aI0
aI2
aI3
aI0
aI2
aI0
aI3
aI2
aI1
aI0
aI1
aI0
aI3
aI0
aI3
aI1
aI0
aI3
aI3
aI3
aI0
aI0
aI0
aI3
aa(lp84
I1
aI2
aI0
aI1
aI2
aI0
aI2
aI3
aI2
aI2
aI1
aI2
aI2
aI2
aI0
aI0
aI1
aI1
aI2
aI1
aI3
aI0
aI3
aI2
aI0
aI0
aI0
aI2
aI1
aI1
aI2
aI2
aI3
aI0
aI2
aI2
aI0
aI0
aI0
aI3
aI2
aI0
aI2
aI3
aI3
aI0
aI3
aI1
aI2
aI1
aI0
aI0
aI3
aI3
aI1
aI3
aI1
aI3
aI2
aI0
aI2
aI0
aI0
aI2
aI2
aI0
aI0
aI3
aI1
aI3
aI1
aI0
aI3
aI0
aI2
aI0
aI1
aI1
aI3
aI1
aI2
aI2
aI3
aI2
aI2
aI3
aI3
aI1
aI2
aI0
aI2
aI2
aI0
aI0
aI3
aI1
aI0
aI1
aI2
aI1
aa(lp85
I0
aI0
aI3
aI2
aI2
aI2
aI3
aI3
aI3
aI2
aI2
aI2
aI0
aI1
aI0
aI3
aI3
aI1
aI3
aI0
aI0
aI2
aI2
aI2
aI1
aI3
aI1
aI3
aI2
aI1
aI3
aI3
aI1
aI0
aI1
aI2
aI0
aI3
aI1
aI2
aI3
aI0
aI1
aI0
aI1
aI2
aI0
aI0
aI1
aI3
aI1
aI3
aI3
aI3
aI1
aI0
aI3
aI2
aI3
aI1
aI2
aI3
aI2
aI1
aI0
aI3
aI1
aI1
aI0
aI0
aI2
aI2
aI3
aI1
aI2
aI0
aI0
aI2
aI0
aI1
aI2
aI2
aI0
aI3
aI3
aI3
aI3
aI0
aI3
aI1
aI0
aI3
aI1
aI2
aI2
aI3
aI2
aI3
aI1
aI3
aa(lp86
I0
aI3
aI3
aI0
aI0
aI1
aI1
aI1
aI1
aI1
aI1
aI0
aI0
aI1
aI1
aI1
aI1
aI1
aI0
aI1
aI1
aI2
aI3
aI2
aI3
aI1
aI1
aI1
aI3
aI1
aI1
aI0
aI2
aI2
aI0
aI0
aI3
aI2
aI1
aI1
aI0
aI2
aI1
aI1
aI1
aI2
aI0
aI1
aI2
aI1
aI2
aI0
aI1
aI3
aI0
aI3
aI2
aI0
aI1
aI3
aI0
aI1
aI2
aI0
aI1
aI3
aI1
aI2
aI3
aI3
aI0
aI0
aI2
aI1
aI0
aI1
aI2
aI0
aI0
aI1
aI1
aI2
aI1
aI3
aI2
aI2
aI1
aI2
aI2
aI1
aI3
aI3
aI2
aI3
aI1
aI3
aI1
aI1
aI3
aI3
aa(lp87
I2
aI1
aI2
aI1
aI0
aI3
aI2
aI0
aI3
aI3
aI0
aI3
aI1
aI2
aI3
aI3
aI3
aI1
aI2
aI2
aI2
aI3
aI2
aI1
aI0
aI2
aI2
aI2
aI2
aI3
aI2
aI0
aI0
aI2
aI3
aI1
aI3
aI3
aI1
aI0
aI0
aI2
aI3
aI2
aI2
aI3
aI2
aI0
aI3
aI2
aI0
aI0
aI3
aI3
aI1
aI1
aI3
aI0
aI1
aI2
aI0
aI3
aI2
aI3
aI3
aI2
aI2
aI0
aI0
aI2
aI0
aI3
aI3
aI1
aI0
aI2
aI3
aI3
aI0
aI3
aI1
aI1
aI0
aI1
aI3
aI0
aI0
aI3
aI0
aI1
aI1
aI2
aI1
aI2
aI2
aI2
aI1
aI2
aI3
aI0
aa(lp88
I3
aI2
aI1
aI1
aI0
aI1
aI2
aI0
aI0
aI0
aI1
aI2
aI1
aI1
aI1
aI3
aI3
aI1
aI2
aI3
aI1
aI1
aI2
aI1
aI2
aI1
aI0
aI0
aI1
aI0
aI2
aI0
aI0
aI3
aI2
aI0
aI1
aI3
aI3
aI1
aI1
aI3
aI1
aI0
aI3
aI0
aI3
aI1
aI2
aI1
aI0
aI3
aI0
aI1
aI0
aI2
aI0
aI2
aI2
aI1
aI0
aI1
aI2
aI3
aI1
aI3
aI3
aI3
aI0
aI0
aI3
aI1
aI3
aI2
aI0
aI2
aI3
aI0
aI3
aI0
aI2
aI3
aI0
aI0
aI2
aI2
aI3
aI2
aI0
aI1
aI1
aI1
aI0
aI2
aI0
aI2
aI1
aI1
aI0
aI1
aa(lp89
I0
aI3
aI0
aI3
aI0
aI3
aI2
aI0
aI1
aI0
aI0
aI1
aI0
aI3
aI2
aI0
aI3
aI0
aI2
aI1
aI3
aI0
aI0
aI2
aI2
aI2
aI1
aI3
aI2
aI3
aI2
aI3
aI0
aI3
aI2
aI3
aI2
aI3
aI3
aI3
aI0
aI0
aI1
aI1
aI2
aI2
aI0
aI0
aI3
aI3
aI0
aI0
aI2
aI3
aI3
aI2
aI1
aI2
aI1
aI2
aI0
aI1
aI3
aI0
aI1
aI2
aI3
aI2
aI1
aI2
aI1
aI1
aI0
aI2
aI2
aI0
aI0
aI0
aI0
aI3
aI1
aI2
aI2
aI1
aI2
aI2
aI1
aI3
aI3
aI2
aI3
aI1
aI0
aI3
aI3
aI1
aI2
aI3
aI1
aI1
aa(lp90
I3
aI2
aI3
aI1
aI0
aI1
aI3
aI2
aI2
aI0
aI1
aI0
aI1
aI1
aI2
aI0
aI1
aI2
aI2
aI1
aI1
aI3
aI0
aI3
aI2
aI0
aI3
aI0
aI2
aI2
aI1
aI3
aI2
aI2
aI0
aI1
aI3
aI0
aI3
aI1
aI2
aI3
aI0
aI2
aI3
aI0
aI0
aI3
aI2
aI2
aI0
aI0
aI2
aI2
aI2
aI3
aI3
aI0
aI2
aI2
aI1
aI0
aI0
aI0
aI1
aI0
aI3
aI0
aI0
aI0
aI0
aI2
aI3
aI1
aI3
aI3
aI3
aI1
aI1
aI1
aI3
aI3
aI2
aI1
aI0
aI0
aI2
aI0
aI0
aI2
aI1
aI2
aI3
aI1
aI3
aI1
aI3
aI1
aI1
aI1
aa(lp91
I3
aI0
aI3
aI3
aI3
aI3
aI2
aI2
aI1
aI2
aI2
aI3
aI3
aI1
aI3
aI3
aI0
aI3
aI3
aI1
aI1
aI3
aI1
aI3
aI3
aI1
aI2
aI2
aI1
aI1
aI0
aI3
aI2
aI1
aI1
aI2
aI0
aI0
aI2
aI0
aI0
aI0
aI3
aI2
aI2
aI3
aI0
aI2
aI3
aI2
aI1
aI0
aI0
aI3
aI0
aI3
aI1
aI3
aI1
aI2
aI0
aI0
aI0
aI0
aI1
aI3
aI1
aI1
aI2
aI1
aI0
aI2
aI1
aI1
aI2
aI3
aI2
aI3
aI2
aI0
aI1
aI3
aI1
aI0
aI3
aI3
aI0
aI3
aI1
aI3
aI3
aI1
aI2
aI2
aI3
aI0
aI0
aI3
aI2
aI3
aa(lp92
I0
aI1
aI3
aI0
aI3
aI2
aI0
aI0
aI1
aI3
aI0
aI0
aI0
aI1
aI0
aI1
aI3
aI0
aI0
aI0
aI0
aI0
aI2
aI0
aI1
aI3
aI2
aI3
aI3
aI1
aI0
aI0
aI2
aI2
aI3
aI1
aI0
aI3
aI0
aI2
aI0
aI2
aI3
aI1
aI3
aI3
aI1
aI3
aI0
aI0
aI3
aI1
aI1
aI3
aI1
aI3
aI3
aI2
aI1
aI3
aI3
aI0
aI2
aI1
aI0
aI3
aI3
aI1
aI0
aI2
aI1
aI2
aI0
aI3
aI3
aI1
aI0
aI2
aI3
aI1
aI3
aI0
aI3
aI2
aI3
aI2
aI1
aI1
aI0
aI3
aI1
aI3
aI2
aI2
aI2
aI0
aI3
aI0
aI0
aI0
aa(lp93
I3
aI1
aI1
aI1
aI1
aI2
aI3
aI3
aI3
aI1
aI1
aI0
aI3
aI2
aI3
aI1
aI0
aI3
aI3
aI2
aI0
aI2
aI0
aI2
aI0
aI2
aI1
aI1
aI2
aI0
aI0
aI0
aI0
aI0
aI0
aI1
aI3
aI1
aI3
aI3
aI2
aI2
aI3
aI1
aI0
aI3
aI3
aI3
aI3
aI2
aI1
aI0
aI0
aI0
aI1
aI0
aI0
aI2
aI0
aI2
aI0
aI3
aI0
aI1
aI2
aI1
aI1
aI3
aI2
aI0
aI3
aI1
aI3
aI3
aI3
aI3
aI3
aI3
aI1
aI0
aI3
aI3
aI0
aI2
aI1
aI3
aI3
aI3
aI3
aI1
aI2
aI3
aI1
aI0
aI2
aI0
aI3
aI0
aI1
aI2
aa(lp94
I0
aI1
aI1
aI1
aI3
aI1
aI2
aI1
aI0
aI3
aI0
aI2
aI0
aI1
aI0
aI0
aI0
aI2
aI2
aI0
aI0
aI1
aI3
aI1
aI2
aI0
aI0
aI2
aI3
aI3
aI1
aI0
aI2
aI1
aI3
aI1
aI1
aI2
aI2
aI1
aI2
aI1
aI0
aI0
aI1
aI0
aI3
aI3
aI2
aI0
aI3
aI1
aI1
aI1
aI1
aI3
aI1
aI1
aI1
aI2
aI0
aI2
aI1
aI1
aI3
aI0
aI3
aI0
aI3
aI2
aI3
aI1
aI3
aI0
aI2
aI2
aI2
aI0
aI3
aI1
aI0
aI3
aI0
aI2
aI1
aI2
aI2
aI1
aI2
aI0
aI1
aI2
aI0
aI0
aI2
aI1
aI3
aI3
aI0
aI2
aa(lp95
I3
aI2
aI3
aI2
aI3
aI2
aI1
aI0
aI3
aI2
aI0
aI2
aI3
aI3
aI1
aI3
aI1
aI3
aI0
aI1
aI3
aI3
aI0
aI0
aI1
aI2
aI1
aI3
aI1
aI1
aI0
aI2
aI2
aI0
aI3
aI1
aI0
aI0
aI2
aI3
aI3
aI2
aI0
aI2
aI2
aI0
aI2
aI2
aI0
aI3
aI3
aI3
aI2
aI1
aI0
aI2
aI0
aI0
aI0
aI1
aI0
aI1
aI0
aI1
aI1
aI1
aI0
aI1
aI0
aI0
aI2
aI0
aI0
aI0
aI2
aI2
aI0
aI1
aI2
aI1
aI0
aI3
aI1
aI0
aI3
aI0
aI1
aI3
aI3
aI0
aI2
aI0
aI0
aI1
aI1
aI1
aI2
aI1
aI3
aI0
aa(lp96
I0
aI1
aI1
aI2
aI3
aI2
aI1
aI1
aI3
aI3
aI0
aI2
aI0
aI2
aI0
aI0
aI1
aI2
aI1
aI2
aI1
aI2
aI3
aI1
aI3
aI2
aI1
aI1
aI3
aI1
aI0
aI0
aI3
aI0
aI1
aI1
aI1
aI3
aI0
aI0
aI2
aI3
aI3
aI3
aI0
aI1
aI2
aI3
aI2
aI2
aI0
aI0
aI1
aI1
aI1
aI1
aI2
aI3
aI0
aI1
aI3
aI0
aI0
aI2
aI0
aI2
aI3
aI3
aI0
aI2
aI0
aI0
aI3
aI2
aI0
aI1
aI3
aI3
aI0
aI1
aI2
aI0
aI3
aI2
aI1
aI2
aI3
aI3
aI0
aI1
aI1
aI2
aI1
aI2
aI2
aI1
aI1
aI0
aI1
aI1
aa(lp97
I1
aI2
aI2
aI3
aI1
aI2
aI0
aI0
aI1
aI3
aI2
aI2
aI3
aI1
aI2
aI1
aI0
aI0
aI0
aI0
aI2
aI1
aI3
aI3
aI2
aI2
aI3
aI1
aI2
aI2
aI1
aI0
aI3
aI3
aI2
aI0
aI0
aI1
aI3
aI0
aI1
aI1
aI1
aI3
aI2
aI0
aI0
aI0
aI2
aI2
aI1
aI1
aI3
aI3
aI0
aI2
aI0
aI2
aI1
aI1
aI0
aI0
aI1
aI1
aI0
aI2
aI3
aI3
aI0
aI0
aI2
aI3
aI1
aI1
aI2
aI3
aI0
aI0
aI0
aI0
aI2
aI2
aI0
aI2
aI0
aI0
aI1
aI1
aI3
aI2
aI3
aI3
aI3
aI3
aI2
aI3
aI2
aI0
aI1
aI1
aa(lp98
I0
aI2
aI0
aI3
aI2
aI0
aI1
aI2
aI3
aI3
aI0
aI0
aI1
aI1
aI0
aI3
aI2
aI3
aI0
aI3
aI0
aI2
aI0
aI3
aI2
aI1
aI1
aI3
aI2
aI3
aI3
aI2
aI1
aI0
aI3
aI0
aI1
aI0
aI1
aI1
aI3
aI3
aI3
aI3
aI0
aI0
aI2
aI2
aI0
aI0
aI0
aI3
aI3
aI2
aI1
aI3
aI1
aI3
aI3
aI3
aI1
aI3
aI1
aI3
aI3
aI2
aI0
aI1
aI3
aI2
aI1
aI2
aI2
aI0
aI3
aI0
aI3
aI1
aI0
aI2
aI3
aI0
aI0
aI0
aI0
aI3
aI3
aI1
aI2
aI3
aI1
aI1
aI3
aI3
aI3
aI2
aI0
aI2
aI2
aI2
aa(lp99
I2
aI3
aI3
aI0
aI2
aI0
aI3
aI2
aI2
aI1
aI3
aI1
aI3
aI0
aI1
aI1
aI3
aI3
aI1
aI1
aI2
aI1
aI2
aI0
aI3
aI0
aI1
aI1
aI3
aI3
aI0
aI0
aI1
aI2
aI0
aI0
aI0
aI3
aI2
aI3
aI2
aI0
aI3
aI0
aI3
aI3
aI1
aI3
aI3
aI3
aI2
aI2
aI2
aI1
aI0
aI1
aI2
aI1
aI2
aI0
aI1
aI1
aI3
aI0
aI3
aI2
aI2
aI2
aI2
aI0
aI1
aI3
aI0
aI3
aI0
aI3
aI3
aI0
aI2
aI1
aI1
aI2
aI1
aI3
aI1
aI0
aI1
aI0
aI2
aI3
aI3
aI1
aI1
aI0
aI0
aI1
aI1
aI2
aI0
aI1
aa(lp100
I1
aI1
aI2
aI0
aI1
aI1
aI2
aI3
aI0
aI2
aI3
aI3
aI0
aI3
aI0
aI2
aI3
aI1
aI0
aI2
aI2
aI2
aI3
aI1
aI1
aI2
aI0
aI3
aI0
aI0
aI0
aI3
aI2
aI0
aI0
aI0
aI2
aI0
aI2
aI3
aI1
aI3
aI2
aI2
aI0
aI2
aI3
aI2
aI3
aI2
aI3
aI0
aI2
aI3
aI3
aI0
aI2
aI0
aI0
aI1
aI0
aI2
aI0
aI2
aI0
aI1
aI2
aI2
aI2
aI1
aI3
aI3
aI0
aI1
aI3
aI1
aI3
aI1
aI3
aI0
aI0
aI0
aI3
aI1
aI3
aI0
aI2
aI0
aI2
aI2
aI0
aI2
aI1
aI2
aI0
aI1
aI2
aI2
aI0
aI0
aa.