(lp0
(lp1
I3
aI3
aI2
aI3
aI0
aI0
aI2
aI1
aI0
aI2
aI1
aI3
aI0
aI3
aI3
aI1
aI3
aI0
aI3
aI1
aI0
aI2
aI0
aI1
aI1
aI3
aI1
aI2
aI2
aI0
aI2
aI2
aI3
aI0
aI0
aI1
aI1
aI0
aI1
aI3
aI2
aI0
aI2
aI1
aI3
aI0
aI3
aI3
aI3
aI3
aI3
aI1
aI0
aI3
aI3
aI3
aI3
aI3
aI0
aI0
aI2
aI1
aI1
aI0
aI3
aI2
aI3
aI2
aI1
aI1
aI2
aI0
aI0
aI3
aI1
aI0
aI2
aI2
aI3
aI1
aI2
aI2
aI1
aI2
aI3
aI0
aI3
aI1
aI1
aI2
aI3
aI1
aI3
aI1
aI2
aI3
aI2
aI2
aI0
aI0
aa(lp2
I0
aI2
aI1
aI2
aI0
aI2
aI3
aI2
aI3
aI2
aI1
aI0
aI3
aI2
aI2
aI0
aI1
aI2
aI1
aI3
aI1
aI1
aI1
aI3
aI1
aI3
aI2
aI0
aI1
aI2
aI3
aI2
aI1
aI1
aI1
aI2
aI2
aI3
aI2
aI0
aI0
aI0
aI0
aI2
aI3
aI3
aI3
aI1
aI2
aI3
aI1
aI0
aI0
aI3
aI3
aI3
aI0
aI3
aI2
aI0
aI2
aI2
aI1
aI1
aI0
aI3
aI2
aI1
aI3
aI2
aI2
aI2
aI0
aI2
aI1
aI1
aI0
aI3
aI1
aI1
aI3
aI2
aI1
aI1
aI2
aI2
aI2
aI3
aI3
aI0
aI0
aI1
aI0
aI0
aI3
aI3
aI3
aI2
aI0
aI2
aa(lp3
I0
aI1
aI1
aI3
aI2
aI3
aI3
aI3
aI2
aI3
aI0
aI3
aI3
aI1
aI2
aI2
aI1
aI2
aI2
aI2
aI2
aI2
aI0
aI3
aI0
aI0
aI2
aI1
aI2
aI1
aI3
aI1
aI0
aI2
aI1
aI3
aI2
aI0
aI2
aI2
aI1
aI1
aI2
aI1
aI0
aI3
aI1
aI2
aI1
aI3
aI0
aI2
aI2
aI2
aI2
aI2
aI3
aI0
aI0
aI1
aI3
aI3
aI3
aI2
aI2
aI0
aI0
aI2
aI0
aI0
aI3
aI1
aI3
aI0
aI0
aI1
aI1
aI3
aI1
aI2
aI1
aI1
aI1
aI0
aI2
aI1
aI3
aI0
aI1
aI1
aI0
aI3
aI2
aI0
aI1
aI3
aI1
aI3
aI2
aI0
aa(lp4
I0
aI0
aI2
aI2
aI3
aI2
aI0
aI1
aI1
aI1
aI2
aI3
aI2
aI3
aI1
aI3
aI1
aI3
aI0
aI0
aI1
aI1
aI0
aI2
aI0
aI3
aI3
aI0
aI3
aI3
aI1
aI2
aI1
aI2
aI3
aI3
aI0
aI0
aI0
aI0
aI0
aI1
aI1
aI1
aI0
aI1
aI0
aI1
aI1
aI0
aI3
aI0
aI3
aI3
aI3
aI0
aI1
aI0
aI1
aI3
aI1
aI2
aI2
aI2
aI3
aI1
aI2
aI3
aI3
aI1
aI2
aI1
aI3
aI2
aI0
aI1
aI3
aI1
aI3
aI0
aI2
aI3
aI0
aI3
aI3
aI2
aI0
aI2
aI1
aI2
aI3
aI0
aI2
aI1
aI1
aI1
aI0
aI3
aI3
aI2
aa(lp5
I1
aI0
aI1
aI1
aI2
aI3
aI2
aI0
aI3
aI3
aI3
aI2
aI3
aI1
aI1
aI1
aI1
aI1
aI1
aI2
aI1
aI3
aI1
aI3
aI1
aI3
aI3
aI1
aI1
aI3
aI3
aI1
aI0
aI0
aI3
aI2
aI0
aI0
aI0
aI2
aI0
aI2
aI0
aI3
aI1
aI3
aI3
aI1
aI3
aI0
aI1
aI0
aI0
aI3
aI0
aI0
aI0
aI0
aI1
aI3
aI2
aI1
aI2
aI3
aI3
aI2
aI2
aI1
aI0
aI1
aI3
aI3
aI1
aI3
aI3
aI0
aI0
aI1
aI2
aI1
aI3
aI0
aI3
aI2
aI1
aI2
aI2
aI0
aI3
aI3
aI1
aI1
aI2
aI0
aI0
aI3
aI1
aI2
aI1
aI2
aa(lp6
I3
aI0
aI0
aI3
aI2
aI3
aI0
aI2
aI0
aI3
aI2
aI1
aI1
aI0
aI0
aI0
aI2
aI1
aI2
aI2
aI0
aI2
aI1
aI3
aI2
aI1
aI3
aI2
aI3
aI2
aI1
aI0
aI2
aI3
aI3
aI0
aI0
aI1
aI0
aI3
aI0
aI0
aI1
aI2
aI3
aI2
aI3
aI2
aI0
aI0
aI2
aI3
aI0
aI0
aI0
aI0
aI3
aI2
aI2
aI0
aI0
aI1
aI3
aI3
aI2
aI1
aI0
aI1
aI0
aI0
aI0
aI0
aI1
aI3
aI2
aI3
aI3
aI1
aI1
aI3
aI1
aI0
aI0
aI3
aI2
aI3
aI3
aI0
aI1
aI0
aI0
aI1
aI3
aI1
aI1
aI3
aI1
aI0
aI3
aI2
aa(lp7
I1
aI3
aI3
aI1
aI3
aI0
aI3
aI2
aI2
aI2
aI1
aI2
aI1
aI2
aI2
aI3
aI1
aI1
aI1
aI1
aI0
aI0
aI0
aI1
aI3
aI0
aI0
aI0
aI0
aI0
aI3
aI1
aI2
aI3
aI0
aI2
aI0
aI0
aI0
aI1
aI3
aI3
aI1
aI1
aI3
aI0
aI3
aI1
aI3
aI3
aI3
aI1
aI2
aI3
aI3
aI2
aI1
aI3
aI1
aI1
aI0
aI1
aI2
aI0
aI3
aI2
aI2
aI0
aI0
aI3
aI1
aI1
aI0
aI2
aI1
aI2
aI2
aI3
aI1
aI3
aI3
aI0
aI1
aI3
aI1
aI1
aI1
aI2
aI2
aI3
aI1
aI2
aI0
aI2
aI3
aI2
aI1
aI0
aI0
aI3
aa(lp8
I3
aI1
aI1
aI1
aI3
aI1
aI3
aI1
aI0
aI1
aI3
aI0
aI3
aI3
aI2
aI0
aI1
aI2
aI0
aI1
aI1
aI2
aI1
aI0
aI1
aI1
aI0
aI0
aI3
aI0
aI2
aI3
aI1
aI3
aI1
aI0
aI0
aI2
aI1
aI0
aI2
aI3
aI1
aI3
aI0
aI3
aI0
aI0
aI1
aI1
aI3
aI1
aI3
aI1
aI3
aI3
aI3
aI1
aI2
aI2
aI3
aI1
aI2
aI0
aI2
aI0
aI3
aI3
aI3
aI3
aI0
aI0
aI2
aI0
aI1
aI2
aI3
aI1
aI2
aI3
aI0
aI3
aI1
aI2
aI1
aI0
aI2
aI3
aI3
aI1
aI2
aI2
aI0
aI0
aI1
aI3
aI1
aI2
aI0
aI1
aa(lp9
I1
aI2
aI3
aI2
aI0
aI3
aI0
aI2
aI0
aI3
aI3
aI0
aI3
aI1
aI3
aI3
aI3
aI3
aI3
aI2
aI2
aI1
aI2
aI0
aI3
aI0
aI2
aI3
aI0
aI0
aI2
aI2
aI1
aI1
aI2
aI1
aI0
aI1
aI1
aI1
aI1
aI3
aI0
aI0
aI1
aI0
aI2
aI0
aI1
aI2
aI2
aI3
aI1
aI2
aI2
aI3
aI2
aI2
aI2
aI0
aI3
aI1
aI2
aI1
aI2
aI3
aI2
aI2
aI0
aI2
aI3
aI0
aI1
aI0
aI0
aI1
aI1
aI1
aI2
aI1
aI2
aI3
aI1
aI0
aI3
aI2
aI2
aI3
aI0
aI0
aI3
aI2
aI2
aI3
aI3
aI0
aI3
aI2
aI1
aI0
aa(lp10
I1
aI0
aI1
aI2
aI2
aI0
aI1
aI1
aI1
aI2
aI3
aI3
aI3
aI0
aI3
aI1
aI1
aI3
aI3
aI2
aI1
aI2
aI2
aI2
aI1
aI0
aI0
aI1
aI3
aI0
aI0
aI0
aI1
aI3
aI1
aI0
aI0
aI3
aI1
aI2
aI1
aI0
aI0
aI1
aI2
aI2
aI0
aI3
aI3
aI0
aI0
aI2
aI2
aI2
aI2
aI3
aI3
aI2
aI2
aI0
aI0
aI2
aI3
aI0
aI3
aI0
aI3
aI1
aI2
aI3
aI0
aI0
aI2
aI1
aI2
aI1
aI2
aI0
aI1
aI2
aI0
aI0
aI2
aI2
aI1
aI1
aI3
aI2
aI1
aI0
aI1
aI0
aI0
aI3
aI2
aI3
aI2
aI3
aI3
aI3
aa(lp11
I3
aI1
aI2
aI0
aI2
aI0
aI1
aI0
aI0
aI2
aI2
aI1
aI2
aI2
aI0
aI1
aI1
aI1
aI0
aI3
aI2
aI2
aI2
aI1
aI3
aI0
aI1
aI0
aI3
aI0
aI1
aI3
aI3
aI2
aI0
aI1
aI0
aI2
aI0
aI2
aI3
aI0
aI1
aI2
aI3
aI0
aI3
aI2
aI2
aI0
aI0
aI2
aI1
aI3
aI0
aI2
aI2
aI2
aI0
aI2
aI2
aI1
aI1
aI3
aI3
aI0
aI2
aI0
aI0
aI0
aI3
aI0
aI3
aI0
aI0
aI3
aI1
aI2
aI3
aI1
aI3
aI2
aI2
aI2
aI2
aI1
aI2
aI1
aI2
aI2
aI2
aI0
aI0
aI2
aI1
aI0
aI2
aI1
aI3
aI1
aa(lp12
I3
aI1
aI1
aI3
aI2
aI3
aI0
aI2
aI1
aI2
aI2
aI3
aI2
aI1
aI1
aI1
aI2
aI3
aI3
aI0
aI0
aI0
aI2
aI2
aI2
aI3
aI1
aI0
aI0
aI2
aI0
aI1
aI1
aI3
aI2
aI2
aI3
aI3
aI0
aI2
aI2
aI2
aI0
aI3
aI0
aI1
aI2
aI1
aI3
aI0
aI2
aI0
aI0
aI0
aI0
aI1
aI2
aI3
aI1
aI2
aI3
aI0
aI2
aI0
aI1
aI0
aI3
aI1
aI1
aI2
aI2
aI2
aI2
aI1
aI2
aI0
aI1
aI3
aI2
aI2
aI3
aI2
aI3
aI1
aI3
aI0
aI3
aI2
aI1
aI2
aI1
aI2
aI2
aI2
aI2
aI0
aI2
aI2
aI1
aI3
aa(lp13
I0
aI2
aI0
aI1
aI2
aI0
aI3
aI1
aI0
aI3
aI3
aI0
aI3
aI2
aI1
aI1
aI1
aI1
aI3
aI3
aI1
aI1
aI2
aI0
aI1
aI2
aI1
aI1
aI1
aI1
aI1
aI3
aI0
aI2
aI0
aI2
aI1
aI1
aI0
aI2
aI2
aI2
aI0
aI0
aI1
aI3
aI1
aI3
aI0
aI2
aI1
aI2
aI1
aI3
aI1
aI2
aI3
aI0
aI3
aI2
aI1
aI2
aI2
aI1
aI0
aI3
aI1
aI1
aI2
aI3
aI1
aI3
aI1
aI2
aI1
aI0
aI3
aI2
aI2
aI1
aI2
aI0
aI0
aI3
aI2
aI2
aI2
aI3
aI0
aI0
aI2
aI3
aI2
aI1
aI3
aI0
aI0
aI2
aI1
aI1
aa(lp14
I1
aI3
aI3
aI2
aI3
aI3
aI3
aI2
aI1
aI2
aI0
aI1
aI1
aI2
aI3
aI0
aI1
aI1
aI3
aI2
aI2
aI2
aI2
aI2
aI2
aI3
aI3
aI1
aI1
aI2
aI2
aI3
aI3
aI0
aI0
aI0
aI2
aI3
aI1
aI3
aI0
aI3
aI3
aI0
aI3
aI0
aI0
aI3
aI1
aI0
aI2
aI2
aI0
aI0
aI0
aI1
aI3
aI1
aI3
aI0
aI1
aI0
aI3
aI3
aI3
aI1
aI3
aI3
aI0
aI3
aI1
aI2
aI3
aI3
aI1
aI1
aI2
aI1
aI3
aI2
aI2
aI2
aI3
aI2
aI1
aI0
aI3
aI2
aI2
aI1
aI1
aI3
aI1
aI0
aI1
aI3
aI2
aI2
aI0
aI2
aa(lp15
I0
aI1
aI2
aI3
aI3
aI0
aI3
aI2
aI2
aI2
aI2
aI2
aI2
aI2
aI1
aI2
aI1
aI2
aI0
aI0
aI2
aI0
aI2
aI1
aI2
aI0
aI0
aI3
aI1
aI3
aI1
aI0
aI1
aI2
aI0
aI0
aI2
aI3
aI2
aI0
aI2
aI3
aI0
aI1
aI0
aI0
aI1
aI3
aI3
aI1
aI2
aI2
aI3
aI0
aI2
aI0
aI0
aI2
aI2
aI1
aI0
aI2
aI0
aI0
aI1
aI3
aI1
aI3
aI2
aI0
aI2
aI0
aI1
aI2
aI2
aI0
aI3
aI0
aI3
aI2
aI2
aI1
aI2
aI3
aI0
aI3
aI2
aI2
aI3
aI3
aI2
aI2
aI1
aI0
aI3
aI0
aI3
aI1
aI1
aI1
aa(lp16
I0
aI1
aI2
aI1
aI3
aI0
aI1
aI2
aI3
aI2
aI3
aI3
aI2
aI2
aI0
aI1
aI3
aI1
aI2
aI2
aI1
aI3
aI1
aI2
aI1
aI1
aI3
aI3
aI3
aI1
aI1
aI0
aI2
aI3
aI0
aI1
aI2
aI1
aI3
aI1
aI3
aI2
aI2
aI2
aI3
aI0
aI2
aI1
aI3
aI1
aI1
aI0
aI1
aI2
aI2
aI1
aI0
aI0
aI1
aI2
aI2
aI2
aI0
aI2
aI3
aI3
aI2
aI3
aI1
aI2
aI3
aI1
aI1
aI0
aI2
aI0
aI1
aI2
aI2
aI3
aI1
aI3
aI2
aI2
aI0
aI2
aI1
aI1
aI1
aI1
aI3
aI1
aI1
aI1
aI2
aI3
aI0
aI3
aI0
aI0
aa(lp17
I0
aI0
aI1
aI1
aI2
aI1
aI2
aI1
aI3
aI0
aI0
aI2
aI0
aI0
aI1
aI1
aI2
aI2
aI2
aI1
aI0
aI2
aI3
aI2
aI0
aI2
aI0
aI3
aI2
aI1
aI2
aI3
aI1
aI1
aI0
aI1
aI1
aI3
aI3
aI1
aI2
aI3
aI0
aI1
aI0
aI0
aI2
aI1
aI0
aI3
aI3
aI2
aI1
aI0
aI0
aI3
aI1
aI2
aI1
aI2
aI2
aI1
aI3
aI2
aI1
aI1
aI2
aI2
aI1
aI0
aI1
aI3
aI2
aI2
aI2
aI3
aI0
aI3
aI3
aI3
aI0
aI1
aI0
aI2
aI0
aI3
aI3
aI1
aI3
aI0
aI2
aI3
aI3
aI1
aI0
aI0
aI0
aI3
aI0
aI3
aa(lp18
I1
aI0
aI2
aI1
aI0
aI0
aI2
aI3
aI2
aI0
aI2
aI3
aI1
aI3
aI3
aI3
aI2
aI3
aI1
aI1
aI0
aI1
aI3
aI0
aI0
aI0
aI0
aI0
aI3
aI2
aI2
aI1
aI1
aI1
aI2
aI3
aI3
aI0
aI2
aI2
aI0
aI2
aI0
aI2
aI0
aI2
aI1
aI2
aI1
aI1
aI1
aI0
aI0
aI3
aI2
aI0
aI2
aI3
aI3
aI3
aI2
aI0
aI1
aI2
aI1
aI2
aI0
aI1
aI0
aI2
aI2
aI2
aI1
aI0
aI3
aI0
aI2
aI1
aI2
aI3
aI2
aI0
aI3
aI1
aI2
aI3
aI2
aI2
aI1
aI2
aI2
aI1
aI1
aI3
aI1
aI2
aI0
aI0
aI1
aI0
aa(lp19
I2
aI3
aI0
aI2
aI2
aI3
aI2
aI3
aI2
aI2
aI2
aI3
aI0
aI2
aI2
aI3
aI2
aI0
aI2
aI0
aI2
aI0
aI3
aI1
aI1
aI3
aI0
aI2
aI1
aI0
aI1
aI2
aI0
aI1
aI3
aI1
aI2
aI2
aI3
aI0
aI0
aI2
aI3
aI1
aI0
aI1
aI0
aI1
aI2
aI2
aI1
aI3
aI1
aI2
aI1
aI1
aI1
aI2
aI1
aI1
aI0
aI3
aI0
aI1
aI2
aI3
aI1
aI2
aI2
aI1
aI2
aI2
aI0
aI2
aI1
aI2
aI3
aI0
aI0
aI2
aI1
aI0
aI0
aI2
aI0
aI0
aI2
aI0
aI1
aI2
aI2
aI1
aI2
aI2
aI2
aI1
aI3
aI2
aI1
aI0
aa(lp20
I1
aI1
aI1
aI0
aI1
aI2
aI0
aI1
aI2
aI0
aI3
aI2
aI1
aI3
aI3
aI0
aI3
aI2
aI3
aI0
aI1
aI0
aI0
aI0
aI3
aI2
aI1
aI1
aI2
aI2
aI1
aI2
aI0
aI1
aI0
aI2
aI3
aI3
aI0
aI2
aI1
aI3
aI3
aI2
aI0
aI1
aI2
aI3
aI1
aI2
aI2
aI2
aI3
aI2
aI1
aI0
aI2
aI1
aI0
aI1
aI0
aI2
aI1
aI1
aI2
aI2
aI1
aI1
aI1
aI3
aI1
aI2
aI0
aI3
aI2
aI1
aI2
aI3
aI0
aI0
aI3
aI2
aI2
aI1
aI1
aI0
aI1
aI3
aI0
aI2
aI0
aI2
aI1
aI2
aI0
aI2
aI3
aI0
aI3
aI2
aa(lp21
I2
aI1
aI3
aI1
aI3
aI1
aI2
aI2
aI0
aI1
aI0
aI1
aI0
aI3
aI2
aI3
aI2
aI0
aI3
aI3
aI3
aI3
aI1
aI3
aI3
aI0
aI3
aI2
aI0
aI2
aI0
aI1
aI1
aI0
aI1
aI3
aI1
aI0
aI2
aI3
aI2
aI3
aI1
aI2
aI1
aI1
aI2
aI1
aI2
aI3
aI3
aI1
aI1
aI3
aI3
aI2
aI2
aI2
aI0
aI1
aI3
aI3
aI3
aI3
aI0
aI3
aI2
aI1
aI3
aI3
aI3
aI2
aI2
aI3
aI1
aI2
aI3
aI3
aI1
aI1
aI0
aI0
aI3
aI0
aI1
aI0
aI0
aI3
aI3
aI0
aI2
aI0
aI1
aI0
aI1
aI2
aI2
aI1
aI1
aI2
aa(lp22
I3
aI1
aI1
aI2
aI1
aI1
aI1
aI1
aI1
aI3
aI3
aI1
aI1
aI2
aI2
aI1
aI1
aI3
aI0
aI3
aI2
aI1
aI0
aI3
aI0
aI3
aI1
aI3
aI0
aI3
aI0
aI2
aI2
aI2
aI2
aI0
aI3
aI2
aI2
aI2
aI0
aI3
aI2
aI1
aI2
aI0
aI0
aI1
aI2
aI1
aI0
aI2
aI1
aI3
aI1
aI0
aI2
aI3
aI2
aI2
aI2
aI0
aI2
aI1
aI2
aI3
aI2
aI3
aI0
aI3
aI3
aI1
aI1
aI2
aI3
aI2
aI0
aI2
aI1
aI0
aI3
aI3
aI1
aI0
aI3
aI0
aI1
aI1
aI0
aI1
aI3
aI1
aI2
aI0
aI3
aI1
aI0
aI2
aI2
aI0
aa(lp23
I1
aI3
aI3
aI2
aI2
aI0
aI3
aI0
aI0
aI1
aI0
aI0
aI2
aI1
aI3
aI0
aI0
aI1
aI2
aI0
aI0
aI0
aI2
aI0
aI0
aI0
aI1
aI2
aI1
aI1
aI2
aI0
aI1
aI2
aI0
aI1
aI2
aI0
aI3
aI1
aI0
aI1
aI1
aI3
aI0
aI0
aI0
aI3
aI2
aI1
aI1
aI2
aI2
aI0
aI0
aI3
aI0
aI0
aI2
aI2
aI1
aI0
aI1
aI3
aI1
aI2
aI3
aI3
aI1
aI2
aI1
aI0
aI0
aI3
aI3
aI3
aI1
aI0
aI3
aI2
aI0
aI3
aI0
aI0
aI1
aI0
aI1
aI0
aI2
aI1
aI3
aI0
aI3
aI1
aI0
aI2
aI1
aI0
aI1
aI3
aa(lp24
I0
aI1
aI2
aI1
aI1
aI0
aI1
aI1
aI2
aI3
aI1
aI1
aI0
aI2
aI2
aI2
aI0
aI1
aI0
aI3
aI0
aI1
aI0
aI3
aI1
aI1
aI1
aI2
aI0
aI1
aI0
aI0
aI3
aI2
aI3
aI2
aI2
aI3
aI2
aI1
aI1
aI3
aI0
aI3
aI1
aI2
aI0
aI0
aI0
aI3
aI0
aI0
aI1
aI0
aI0
aI0
aI1
aI2
aI3
aI2
aI2
aI0
aI3
aI0
aI3
aI1
aI0
aI3
aI0
aI1
aI0
aI2
aI0
aI3
aI3
aI1
aI2
aI1
aI0
aI0
aI1
aI2
aI0
aI1
aI0
aI3
aI1
aI0
aI2
aI3
aI0
aI2
aI3
aI1
aI2
aI3
aI3
aI2
aI1
aI0
aa(lp25
I0
aI3
aI2
aI2
aI2
aI2
aI1
aI2
aI1
aI1
aI2
aI0
aI3
aI3
aI3
aI2
aI3
aI1
aI3
aI3
aI0
aI3
aI3
aI2
aI1
aI3
aI1
aI0
aI1
aI2
aI3
aI2
aI3
aI2
aI1
aI3
aI2
aI2
aI3
aI0
aI2
aI1
aI1
aI2
aI1
aI3
aI0
aI2
aI0
aI2
aI2
aI1
aI2
aI1
aI0
aI2
aI3
aI1
aI1
aI1
aI0
aI0
aI2
aI2
aI2
aI1
aI2
aI0
aI1
aI3
aI0
aI1
aI3
aI0
aI3
aI1
aI1
aI3
aI0
aI1
aI1
aI0
aI2
aI0
aI3
aI1
aI2
aI3
aI0
aI0
aI1
aI0
aI3
aI3
aI0
aI0
aI1
aI1
aI2
aI2
aa(lp26
I2
aI2
aI0
aI1
aI3
aI0
aI1
aI3
aI0
aI2
aI0
aI2
aI1
aI2
aI2
aI2
aI3
aI3
aI1
aI2
aI3
aI3
aI3
aI3
aI2
aI1
aI3
aI0
aI0
aI1
aI1
aI1
aI0
aI0
aI3
aI3
aI0
aI3
aI3
aI2
aI1
aI0
aI3
aI3
aI3
aI0
aI1
aI3
aI3
aI1
aI2
aI0
aI1
aI1
aI2
aI2
aI3
aI0
aI3
aI3
aI2
aI3
aI0
aI2
aI2
aI3
aI3
aI1
aI2
aI0
aI1
aI1
aI1
aI1
aI2
aI0
aI0
aI1
aI3
aI1
aI3
aI1
aI0
aI2
aI2
aI3
aI2
aI3
aI2
aI1
aI1
aI2
aI3
aI0
aI0
aI3
aI1
aI2
aI3
aI0
aa(lp27
I1
aI1
aI1
aI0
aI1
aI0
aI3
aI1
aI1
aI0
aI2
aI2
aI2
aI3
aI3
aI2
aI3
aI1
aI0
aI2
aI1
aI0
aI0
aI1
aI1
aI3
aI2
aI1
aI1
aI3
aI2
aI0
aI1
aI3
aI1
aI2
aI1
aI1
aI2
aI2
aI2
aI0
aI3
aI3
aI3
aI1
aI3
aI1
aI0
aI3
aI2
aI2
aI0
aI0
aI2
aI0
aI0
aI2
aI2
aI2
aI2
aI3
aI1
aI3
aI0
aI2
aI1
aI3
aI0
aI1
aI3
aI2
aI3
aI1
aI3
aI3
aI2
aI2
aI2
aI0
aI0
aI1
aI2
aI0
aI1
aI3
aI2
aI1
aI2
aI1
aI0
aI1
aI0
aI0
aI2
aI3
aI3
aI3
aI0
aI2
aa(lp28
I3
aI1
aI3
aI0
aI3
aI3
aI2
aI1
aI1
aI1
aI3
aI2
aI0
aI0
aI2
aI1
aI1
aI2
aI0
aI1
aI3
aI0
aI2
aI1
aI2
aI0
aI1
aI3
aI3
aI1
aI0
aI0
aI3
aI1
aI1
aI3
aI1
aI1
aI3
aI0
aI2
aI0
aI0
aI1
aI3
aI2
aI3
aI0
aI1
aI3
aI1
aI1
aI0
aI2
aI0
aI3
aI3
aI0
aI2
aI0
aI1
aI1
aI2
aI0
aI0
aI2
aI2
aI3
aI1
aI0
aI2
aI2
aI3
aI0
aI0
aI1
aI3
aI2
aI3
aI0
aI2
aI1
aI3
aI2
aI2
aI2
aI0
aI2
aI1
aI2
aI0
aI1
aI0
aI2
aI1
aI1
aI1
aI3
aI3
aI2
aa(lp29
I3
aI3
aI0
aI2
aI0
aI3
aI1
aI2
aI2
aI1
aI0
aI1
aI3
aI1
aI0
aI3
aI0
aI3
aI0
aI1
aI3
aI0
aI2
aI3
aI3
aI3
aI0
aI3
aI0
aI2
aI1
aI3
aI1
aI1
aI1
aI1
aI2
aI1
aI3
aI2
aI0
aI0
aI3
aI3
aI3
aI1
aI1
aI1
aI2
aI2
aI1
aI3
aI0
aI1
aI3
aI0
aI0
aI3
aI0
aI0
aI2
aI3
aI2
aI0
aI2
aI1
aI2
aI3
aI3
aI3
aI1
aI0
aI0
aI2
aI3
aI1
aI1
aI1
aI2
aI3
aI3
aI1
aI2
aI0
aI2
aI1
aI2
aI1
aI1
aI3
aI3
aI2
aI0
aI1
aI1
aI0
aI1
aI3
aI3
aI3
aa(lp30
I2
aI2
aI3
aI2
aI3
aI2
aI3
aI0
aI0
aI3
aI1
aI1
aI3
aI2
aI1
aI3
aI2
aI0
aI2
aI2
aI1
aI1
aI1
aI1
aI1
aI2
aI1
aI3
aI0
aI3
aI1
aI3
aI2
aI1
aI0
aI0
aI1
aI3
aI1
aI1
aI2
aI2
aI3
aI3
aI0
aI3
aI3
aI3
aI2
aI3
aI0
aI2
aI0
aI1
aI2
aI1
aI2
aI0
aI3
aI0
aI1
aI1
aI2
aI0
aI1
aI3
aI0
aI1
aI0
aI0
aI3
aI3
aI2
aI2
aI1
aI0
aI1
aI1
aI2
aI3
aI0
aI2
aI2
aI3
aI1
aI2
aI3
aI2
aI0
aI3
aI2
aI3
aI3
aI2
aI2
aI0
aI3
aI1
aI1
aI1
aa(lp31
I1
aI2
aI1
aI2
aI3
aI3
aI3
aI2
aI0
aI3
aI1
aI1
aI3
aI3
aI3
aI0
aI0
aI2
aI1
aI3
aI2
aI1
aI3
aI0
aI0
aI3
aI2
aI0
aI1
aI2
aI0
aI2
aI1
aI0
aI0
aI2
aI2
aI3
aI0
aI1
aI0
aI0
aI1
aI3
aI2
aI0
aI2
aI1
aI3
aI0
aI0
aI0
aI0
aI1
aI2
aI2
aI0
aI1
aI2
aI3
aI3
aI3
aI0
aI0
aI0
aI1
aI1
aI1
aI2
aI0
aI3
aI2
aI0
aI1
aI0
aI2
aI0
aI1
aI3
aI1
aI1
aI3
aI0
aI3
aI2
aI0
aI2
aI2
aI0
aI1
aI3
aI0
aI3
aI1
aI3
aI0
aI1
aI3
aI1
aI3
aa(lp32
I1
aI1
aI2
aI1
aI3
aI0
aI2
aI3
aI1
aI0
aI2
aI2
aI2
aI3
aI1
aI0
aI2
aI1
aI1
aI1
aI1
aI3
aI0
aI2
aI0
aI1
aI0
aI1
aI2
aI0
aI2
aI1
aI1
aI2
aI2
aI3
aI1
aI0
aI2
aI3
aI3
aI2
aI1
aI1
aI1
aI1
aI1
aI1
aI3
aI0
aI0
aI3
aI2
aI2
aI0
aI3
aI2
aI3
aI2
aI0
aI0
aI2
aI2
aI1
aI3
aI2
aI1
aI1
aI1
aI2
aI1
aI1
aI3
aI3
aI2
aI1
aI0
aI1
aI3
aI2
aI1
aI0
aI0
aI3
aI2
aI0
aI3
aI1
aI2
aI1
aI0
aI0
aI1
aI2
aI2
aI0
aI3
aI1
aI3
aI1
aa(lp33
I0
aI1
aI2
aI1
aI3
aI0
aI1
aI3
aI0
aI1
aI3
aI1
aI3
aI3
aI1
aI2
aI3
aI1
aI1
aI0
aI1
aI2
aI1
aI2
aI2
aI3
aI0
aI1
aI1
aI3
aI0
aI3
aI3
aI3
aI3
aI3
aI3
aI2
aI3
aI3
aI0
aI3
aI1
aI3
aI3
aI2
aI2
aI1
aI0
aI1
aI1
aI2
aI0
aI3
aI0
aI3
aI0
aI3
aI2
aI3
aI2
aI1
aI3
aI0
aI2
aI2
aI0
aI3
aI3
aI1
aI0
aI3
aI3
aI1
aI1
aI3
aI1
aI1
aI2
aI1
aI3
aI2
aI2
aI3
aI1
aI0
aI2
aI3
aI1
aI2
aI2
aI0
aI1
aI3
aI2
aI0
aI0
aI2
aI1
aI2
aa(lp34
I0
aI2
aI2
aI0
aI2
aI1
aI2
aI2
aI1
aI2
aI0
aI2
aI3
aI0
aI0
aI3
aI3
aI0
aI3
aI3
aI0
aI0
aI2
aI2
aI0
aI0
aI2
aI0
aI0
aI3
aI2
aI0
aI0
aI3
aI2
aI2
aI3
aI2
aI0
aI1
aI2
aI0
aI0
aI0
aI2
aI3
aI0
aI1
aI2
aI0
aI0
aI0
aI2
aI2
aI2
aI3
aI2
aI1
aI3
aI0
aI0
aI3
aI0
aI2
aI3
aI2
aI0
aI0
aI2
aI3
aI2
aI0
aI0
aI2
aI0
aI0
aI2
aI3
aI1
aI1
aI0
aI2
aI0
aI0
aI0
aI2
aI2
aI3
aI0
aI0
aI3
aI2
aI3
aI1
aI3
aI0
aI3
aI1
aI1
aI0
aa(lp35
I3
aI3
aI2
aI2
aI1
aI1
aI2
aI1
aI0
aI1
aI0
aI1
aI2
aI2
aI3
aI1
aI2
aI0
aI3
aI1
aI2
aI1
aI3
aI2
aI2
aI2
aI3
aI0
aI2
aI3
aI1
aI2
aI2
aI1
aI2
aI2
aI3
aI0
aI0
aI2
aI2
aI0
aI3
aI3
aI1
aI0
aI3
aI0
aI0
aI3
aI1
aI0
aI1
aI3
aI1
aI1
aI2
aI2
aI0
aI2
aI2
aI0
aI0
aI1
aI3
aI1
aI0
aI0
aI3
aI1
aI0
aI1
aI2
aI3
aI3
aI0
aI0
aI2
aI3
aI0
aI2
aI1
aI0
aI3
aI2
aI1
aI0
aI3
aI0
aI3
aI1
aI0
aI1
aI3
aI0
aI2
aI1
aI1
aI2
aI2
aa(lp36
I3
aI2
aI0
aI3
aI1
aI1
aI1
aI0
aI1
aI2
aI1
aI1
aI2
aI2
aI3
aI3
aI1
aI3
aI2
aI2
aI3
aI1
aI1
aI0
aI1
aI1
aI0
aI2
aI2
aI1
aI1
aI2
aI3
aI2
aI1
aI1
aI1
aI0
aI0
aI0
aI0
aI2
aI1
aI1
aI1
aI3
aI3
aI1
aI2
aI0
aI0
aI1
aI0
aI2
aI3
aI0
aI2
aI0
aI1
aI0
aI3
aI0
aI0
aI2
aI1
aI2
aI2
aI3
aI0
aI1
aI0
aI1
aI0
aI3
aI0
aI1
aI0
aI1
aI0
aI1
aI0
aI3
aI2
aI0
aI2
aI1
aI3
aI3
aI0
aI3
aI2
aI3
aI3
aI2
aI0
aI3
aI3
aI0
aI0
aI0
aa(lp37
I1
aI3
aI2
aI2
aI3
aI1
aI0
aI1
aI1
aI2
aI1
aI3
aI2
aI2
aI0
aI3
aI2
aI0
aI1
aI1
aI1
aI2
aI1
aI2
aI1
aI1
aI2
aI1
aI2
aI0
aI3
aI3
aI2
aI2
aI0
aI0
aI2
aI1
aI3
aI0
aI3
aI3
aI1
aI3
aI0
aI2
aI3
aI2
aI2
aI3
aI2
aI1
aI1
aI2
aI0
aI1
aI2
aI0
aI2
aI3
aI0
aI1
aI3
aI0
aI2
aI2
aI0
aI2
aI2
aI3
aI3
aI3
aI1
aI0
aI3
aI2
aI3
aI2
aI0
aI0
aI1
aI2
aI3
aI3
aI0
aI0
aI0
aI0
aI1
aI2
aI0
aI3
aI2
aI3
aI2
aI0
aI1
aI0
aI2
aI3
aa(lp38
I3
aI0
aI1
aI2
aI3
aI2
aI0
aI0
aI3
aI2
aI3
aI0
aI1
aI2
aI3
aI2
aI0
aI3
aI3
aI1
aI2
aI1
aI3
aI2
aI2
aI0
aI2
aI1
aI1
aI1
aI0
aI2
aI0
aI0
aI1
aI2
aI0
aI1
aI1
aI0
aI0
aI2
aI2
aI1
aI2
aI1
aI1
aI0
aI1
aI1
aI3
aI1
aI0
aI3
aI1
aI3
aI1
aI3
aI2
aI1
aI2
aI1
aI3
aI3
aI2
aI3
aI0
aI1
aI0
aI0
aI1
aI1
aI0
aI1
aI1
aI1
aI0
aI1
aI2
aI0
aI1
aI0
aI3
aI0
aI0
aI3
aI3
aI2
aI1
aI0
aI0
aI3
aI2
aI0
aI0
aI1
aI2
aI2
aI0
aI2
aa(lp39
I2
aI2
aI1
aI2
aI1
aI2
aI0
aI0
aI3
aI1
aI0
aI1
aI2
aI0
aI0
aI2
aI3
aI3
aI3
aI3
aI0
aI1
aI1
aI3
aI2
aI2
aI1
aI0
aI2
aI2
aI0
aI2
aI0
aI0
aI1
aI3
aI2
aI2
aI3
aI3
aI1
aI2
aI1
aI0
aI3
aI1
aI0
aI0
aI1
aI2
aI3
aI1
aI0
aI3
aI2
aI2
aI2
aI0
aI2
aI2
aI3
aI1
aI0
aI0
aI3
aI0
aI0
aI2
aI0
aI1
aI1
aI3
aI2
aI1
aI2
aI2
aI1
aI0
aI0
aI0
aI1
aI2
aI1
aI3
aI2
aI0
aI1
aI1
aI3
aI0
aI1
aI1
aI3
aI1
aI0
aI3
aI0
aI3
aI0
aI0
aa(lp40
I3
aI0
aI3
aI3
aI1
aI1
aI0
aI2
aI3
aI2
aI1
aI1
aI3
aI3
aI3
aI3
aI0
aI0
aI3
aI0
aI0
aI0
aI2
aI2
aI1
aI0
aI2
aI1
aI2
aI3
aI3
aI0
aI3
aI1
aI1
aI2
aI0
aI0
aI3
aI1
aI2
aI1
aI0
aI2
aI0
aI1
aI2
aI2
aI2
aI2
aI1
aI1
aI3
aI0
aI3
aI3
aI3
aI1
aI0
aI0
aI3
aI0
aI3
aI0
aI2
aI2
aI0
aI0
aI0
aI1
aI0
aI1
aI2
aI3
aI3
aI1
aI1
aI2
aI0
aI3
aI1
aI0
aI0
aI2
aI1
aI1
aI1
aI0
aI0
aI3
aI2
aI1
aI0
aI2
aI2
aI2
aI2
aI3
aI2
aI2
aa(lp41
I2
aI3
aI2
aI3
aI0
aI3
aI0
aI1
aI3
aI0
aI1
aI2
aI1
aI2
aI3
aI2
aI3
aI1
aI1
aI3
aI3
aI1
aI0
aI1
aI1
aI1
aI2
aI1
aI2
aI1
aI2
aI0
aI1
aI0
aI0
aI1
aI2
aI1
aI0
aI1
aI2
aI1
aI2
aI0
aI0
aI3
aI2
aI3
aI3
aI0
aI1
aI3
aI3
aI1
aI0
aI2
aI3
aI3
aI1
aI0
aI3
aI1
aI2
aI2
aI2
aI1
aI0
aI3
aI0
aI2
aI3
aI2
aI0
aI2
aI1
aI2
aI2
aI3
aI0
aI3
aI3
aI1
aI3
aI1
aI2
aI0
aI3
aI3
aI1
aI3
aI0
aI0
aI1
aI0
aI1
aI2
aI0
aI2
aI3
aI1
aa(lp42
I3
aI2
aI3
aI2
aI0
aI2
aI0
aI1
aI3
aI2
aI2
aI0
aI1
aI2
aI2
aI2
aI2
aI1
aI1
aI1
aI1
aI1
aI1
aI0
aI2
aI0
aI3
aI1
aI2
aI3
aI3
aI0
aI2
aI1
aI2
aI3
aI0
aI1
aI2
aI1
aI3
aI1
aI3
aI3
aI3
aI2
aI0
aI0
aI3
aI3
aI0
aI3
aI1
aI2
aI0
aI0
aI2
aI1
aI2
aI1
aI1
aI3
aI2
aI0
aI2
aI3
aI0
aI2
aI0
aI1
aI2
aI0
aI0
aI2
aI0
aI1
aI1
aI0
aI1
aI0
aI0
aI2
aI0
aI3
aI1
aI0
aI0
aI3
aI2
aI1
aI1
aI1
aI2
aI3
aI2
aI3
aI1
aI0
aI3
aI2
aa(lp43
I3
aI0
aI1
aI0
aI1
aI1
aI0
aI0
aI0
aI0
aI2
aI2
aI1
aI3
aI2
aI0
aI2
aI3
aI1
aI2
aI0
aI0
aI3
aI3
aI1
aI0
aI3
aI1
aI2
aI1
aI3
aI2
aI0
aI3
aI3
aI3
aI3
aI3
aI3
aI2
aI2
aI2
aI2
aI1
aI0
aI1
aI3
aI3
aI0
aI2
aI0
aI1
aI1
aI3
aI2
aI3
aI1
aI1
aI1
aI0
aI0
aI0
aI2
aI2
aI2
aI2
aI1
aI0
aI1
aI0
aI3
aI2
aI1
aI3
aI1
aI1
aI3
aI1
aI3
aI2
aI0
aI0
aI2
aI2
aI0
aI0
aI3
aI1
aI3
aI0
aI1
aI0
aI1
aI3
aI2
aI2
aI2
aI1
aI1
aI1
aa(lp44
I2
aI0
aI2
aI3
aI1
aI1
aI0
aI1
aI1
aI1
aI0
aI3
aI0
aI2
aI2
aI3
aI1
aI1
aI3
aI0
aI3
aI2
aI0
aI1
aI1
aI0
aI0
aI0
aI2
aI3
aI0
aI3
aI0
aI3
aI1
aI0
aI3
aI1
aI0
aI2
aI1
aI2
aI0
aI1
aI3
aI0
aI3
aI3
aI1
aI3
aI2
aI3
aI0
aI1
aI2
aI1
aI2
aI0
aI0
aI0
aI2
aI3
aI0
aI1
aI1
aI1
aI0
aI2
aI1
aI3
aI3
aI3
aI3
aI2
aI1
aI1
aI1
aI3
aI2
aI2
aI2
aI0
aI2
aI3
aI2
aI3
aI3
aI2
aI3
aI3
aI3
aI3
aI0
aI1
aI2
aI2
aI1
aI2
aI0
aI1
aa(lp45
I2
aI2
aI3
aI3
aI0
aI0
aI3
aI1
aI0
aI1
aI2
aI1
aI0
aI1
aI1
aI2
aI1
aI0
aI2
aI3
aI1
aI1
aI0
aI0
aI0
aI3
aI0
aI1
aI3
aI3
aI3
aI0
aI1
aI1
aI2
aI3
aI0
aI3
aI2
aI0
aI0
aI1
aI1
aI2
aI2
aI0
aI0
aI1
aI3
aI3
aI2
aI0
aI1
aI0
aI2
aI2
aI3
aI0
aI0
aI2
aI3
aI0
aI2
aI1
aI3
aI2
aI1
aI2
aI0
aI1
aI2
aI3
aI0
aI3
aI2
aI3
aI1
aI3
aI2
aI1
aI2
aI1
aI0
aI3
aI2
aI0
aI1
aI3
aI0
aI1
aI3
aI0
aI3
aI3
aI0
aI2
aI3
aI3
aI2
aI2
aa(lp46
I1
aI0
aI3
aI3
aI1
aI1
aI3
aI2
aI0
aI2
aI2
aI2
aI3
aI1
aI1
aI3
aI2
aI3
aI1
aI3
aI1
aI0
aI3
aI1
aI0
aI1
aI0
aI0
aI3
aI0
aI3
aI2
aI2
aI3
aI2
aI0
aI1
aI0
aI0
aI3
aI0
aI2
aI3
aI2
aI3
aI0
aI0
aI3
aI2
aI1
aI2
aI3
aI2
aI3
aI1
aI0
aI2
aI3
aI0
aI3
aI0
aI3
aI3
aI0
aI0
aI1
aI1
aI2
aI1
aI2
aI3
aI3
aI0
aI1
aI3
aI0
aI2
aI3
aI2
aI3
aI1
aI0
aI0
aI2
aI0
aI0
aI2
aI0
aI3
aI3
aI3
aI3
aI2
aI3
aI2
aI3
aI0
aI2
aI2
aI1
aa(lp47
I3
aI2
aI2
aI1
aI3
aI3
aI0
aI1
aI0
aI2
aI1
aI3
aI0
aI1
aI1
aI0
aI2
aI1
aI0
aI1
aI2
aI2
aI0
aI3
aI1
aI3
aI3
aI1
aI3
aI0
aI0
aI1
aI3
aI3
aI1
aI1
aI0
aI0
aI3
aI2
aI1
aI0
aI1
aI3
aI0
aI3
aI1
aI3
aI3
aI3
aI0
aI3
aI1
aI2
aI3
aI0
aI2
aI2
aI0
aI0
aI3
aI1
aI0
aI0
aI2
aI0
aI2
aI2
aI0
aI3
aI1
aI1
aI0
aI2
aI1
aI2
aI2
aI2
aI0
aI2
aI3
aI1
aI1
aI2
aI3
aI0
aI2
aI1
aI1
aI0
aI0
aI3
aI3
aI0
aI1
aI0
aI0
aI3
aI3
aI0
aa(lp48
I1
aI3
aI3
aI1
aI0
aI0
aI0
aI3
aI0
aI3
aI3
aI2
aI3
aI2
aI2
aI3
aI2
aI0
aI2
aI2
aI2
aI2
aI2
aI0
aI3
aI2
aI0
aI0
aI0
aI1
aI2
aI2
aI0
aI0
aI3
aI2
aI0
aI2
aI1
aI1
aI1
aI0
aI3
aI3
aI1
aI2
aI3
aI3
aI0
aI2
aI3
aI3
aI3
aI3
aI0
aI0
aI2
aI3
aI3
aI1
aI0
aI3
aI1
aI2
aI1
aI3
aI1
aI0
aI0
aI0
aI0
aI1
aI3
aI3
aI1
aI2
aI3
aI1
aI3
aI0
aI2
aI1
aI3
aI3
aI1
aI0
aI1
aI3
aI1
aI1
aI3
aI0
aI1
aI3
aI1
aI3
aI2
aI3
aI2
aI3
aa(lp49
I2
aI1
aI1
aI3
aI0
aI3
aI1
aI2
aI3
aI3
aI1
aI3
aI0
aI3
aI1
aI0
aI2
aI3
aI3
aI2
aI1
aI2
aI2
aI2
aI3
aI3
aI2
aI3
aI3
aI3
aI1
aI3
aI3
aI1
aI0
aI1
aI1
aI1
aI0
aI0
aI0
aI0
aI1
aI1
aI0
aI1
aI1
aI1
aI2
aI0
aI1
aI0
aI3
aI1
aI1
aI2
aI3
aI3
aI3
aI1
aI0
aI3
aI1
aI2
aI2
aI1
aI3
aI1
aI3
aI2
aI3
aI0
aI0
aI0
aI1
aI2
aI2
aI3
aI2
aI1
aI1
aI1
aI1
aI1
aI0
aI1
aI2
aI1
aI2
aI2
aI1
aI2
aI3
aI1
aI3
aI2
aI1
aI0
aI3
aI3
aa(lp50
I2
aI1
aI1
aI0
aI2
aI0
aI1
aI3
aI1
aI3
aI3
aI3
aI0
aI1
aI3
aI0
aI2
aI2
aI2
aI0
aI1
aI0
aI3
aI0
aI0
aI2
aI2
aI3
aI1
aI1
aI0
aI2
aI0
aI3
aI1
aI3
aI3
aI1
aI1
aI1
aI0
aI0
aI0
aI1
aI0
aI3
aI3
aI3
aI0
aI1
aI2
aI3
aI1
aI1
aI0
aI0
aI3
aI2
aI0
aI2
aI2
aI1
aI3
aI1
aI2
aI2
aI2
aI3
aI2
aI1
aI2
aI2
aI2
aI1
aI3
aI1
aI3
aI2
aI3
aI1
aI2
aI3
aI1
aI1
aI2
aI3
aI1
aI2
aI1
aI1
aI1
aI1
aI0
aI1
aI0
aI1
aI0
aI2
aI1
aI1
aa(lp51
I0
aI0
aI3
aI3
aI3
aI2
aI0
aI0
aI1
aI0
aI0
aI1
aI0
aI3
aI3
aI0
aI3
aI1
aI0
aI3
aI1
aI1
aI0
aI3
aI2
aI0
aI0
aI2
aI2
aI2
aI3
aI0
aI0
aI1
aI2
aI2
aI0
aI3
aI3
aI1
aI0
aI2
aI1
aI2
aI1
aI1
aI1
aI1
aI0
aI1
aI2
aI3
aI2
aI2
aI1
aI3
aI1
aI3
aI2
aI0
aI2
aI0
aI3
aI2
aI2
aI3
aI0
aI2
aI1
aI2
aI0
aI0
aI0
aI2
aI0
aI0
aI0
aI1
aI2
aI3
aI2
aI2
aI1
aI1
aI3
aI2
aI0
aI3
aI1
aI3
aI3
aI1
aI1
aI2
aI3
aI3
aI2
aI0
aI0
aI1
aa(lp52
I2
aI3
aI3
aI2
aI2
aI0
aI0
aI0
aI3
aI3
aI3
aI0
aI1
aI0
aI3
aI2
aI1
aI3
aI0
aI3
aI2
aI3
aI1
aI0
aI0
aI1
aI0
aI3
aI2
aI1
aI1
aI0
aI3
aI0
aI1
aI1
aI1
aI2
aI2
aI1
aI2
aI3
aI3
aI2
aI3
aI0
aI1
aI0
aI2
aI1
aI3
aI3
aI0
aI2
aI1
aI0
aI2
aI1
aI3
aI3
aI3
aI1
aI1
aI0
aI2
aI1
aI0
aI0
aI3
aI1
aI2
aI3
aI2
aI1
aI3
aI0
aI3
aI3
aI3
aI1
aI3
aI1
aI1
aI3
aI2
aI0
aI0
aI3
aI1
aI3
aI0
aI2
aI3
aI2
aI3
aI1
aI0
aI1
aI0
aI2
aa(lp53
I0
aI1
aI3
aI2
aI0
aI3
aI2
aI1
aI1
aI0
aI1
aI2
aI2
aI1
aI1
aI3
aI3
aI3
aI3
aI0
aI3
aI0
aI0
aI3
aI3
aI3
aI3
aI3
aI2
aI0
aI1
aI0
aI1
aI0
aI1
aI3
aI0
aI1
aI2
aI3
aI2
aI0
aI2
aI1
aI3
aI0
aI2
aI0
aI3
aI1
aI0
aI2
aI3
aI3
aI0
aI3
aI2
aI3
aI3
aI0
aI1
aI1
aI0
aI1
aI0
aI3
aI0
aI0
aI3
aI0
aI2
aI3
aI2
aI2
aI1
aI1
aI0
aI0
aI2
aI2
aI3
aI1
aI2
aI0
aI2
aI3
aI1
aI0
aI2
aI3
aI0
aI1
aI1
aI3
aI1
aI3
aI0
aI0
aI2
aI3
aa(lp54
I0
aI1
aI2
aI2
aI3
aI1
aI2
aI2
aI1
aI1
aI1
aI1
aI1
aI2
aI1
aI1
aI0
aI1
aI3
aI2
aI1
aI2
aI3
aI1
aI3
aI2
aI2
aI3
aI1
aI0
aI3
aI3
aI1
aI2
aI1
aI1
aI1
aI1
aI0
aI0
aI3
aI3
aI1
aI1
aI3
aI1
aI0
aI2
aI2
aI0
aI1
aI2
aI3
aI0
aI3
aI3
aI0
aI3
aI3
aI1
aI2
aI0
aI2
aI3
aI3
aI2
aI2
aI2
aI3
aI1
aI0
aI3
aI0
aI3
aI2
aI1
aI3
aI2
aI1
aI2
aI0
aI1
aI3
aI2
aI1
aI0
aI1
aI0
aI0
aI1
aI1
aI0
aI2
aI1
aI0
aI1
aI1
aI0
aI2
aI0
aa(lp55
I0
aI2
aI3
aI2
aI0
aI3
aI0
aI0
aI2
aI2
aI3
aI3
aI2
aI1
aI2
aI3
aI3
aI2
aI3
aI3
aI1
aI2
aI1
aI3
aI2
aI1
aI0
aI3
aI2
aI2
aI3
aI0
aI1
aI0
aI2
aI1
aI2
aI3
aI2
aI0
aI1
aI1
aI1
aI2
aI1
aI0
aI1
aI2
aI2
aI0
aI3
aI2
aI3
aI1
aI0
aI1
aI3
aI0
aI2
aI2
aI1
aI0
aI2
aI0
aI1
aI1
aI1
aI3
aI1
aI0
aI1
aI0
aI3
aI0
aI3
aI0
aI0
aI1
aI1
aI1
aI3
aI2
aI0
aI1
aI1
aI2
aI0
aI2
aI3
aI1
aI1
aI2
aI2
aI1
aI1
aI2
aI1
aI0
aI0
aI2
aa(lp56
I1
aI3
aI1
aI3
aI0
aI0
aI3
aI1
aI3
aI3
aI2
aI0
aI0
aI0
aI3
aI3
aI2
aI1
aI0
aI3
aI2
aI2
aI3
aI2
aI0
aI0
aI2
aI1
aI2
aI2
aI0
aI2
aI2
aI1
aI1
aI0
aI3
aI0
aI2
aI3
aI2
aI1
aI1
aI0
aI2
aI2
aI1
aI0
aI0
aI1
aI0
aI2
aI0
aI0
aI2
aI0
aI0
aI3
aI3
aI0
aI1
aI2
aI3
aI3
aI3
aI1
aI2
aI3
aI3
aI3
aI3
aI0
aI0
aI0
aI1
aI2
aI0
aI3
aI3
aI0
aI2
aI3
aI2
aI3
aI1
aI1
aI2
aI1
aI0
aI2
aI0
aI1
aI3
aI0
aI1
aI2
aI3
aI3
aI3
aI1
aa(lp57
I0
aI1
aI1
aI2
aI1
aI1
aI1
aI3
aI1
aI3
aI1
aI0
aI1
aI1
aI0
aI2
aI1
aI3
aI3
aI0
aI0
aI0
aI0
aI1
aI3
aI2
aI2
aI1
aI1
aI2
aI0
aI0
aI0
aI2
aI2
aI1
aI0
aI2
aI0
aI0
aI0
aI3
aI3
aI1
aI2
aI2
aI3
aI1
aI1
aI3
aI1
aI3
aI3
aI2
aI1
aI3
aI0
aI1
aI1
aI0
aI1
aI2
aI0
aI1
aI2
aI0
aI3
aI2
aI0
aI1
aI1
aI0
aI2
aI3
aI1
aI1
aI3
aI3
aI1
aI3
aI0
aI3
aI3
aI2
aI2
aI1
aI0
aI0
aI0
aI3
aI0
aI0
aI3
aI0
aI3
aI2
aI2
aI2
aI1
aI3
aa(lp58
I2
aI0
aI2
aI0
aI2
aI2
aI3
aI1
aI2
aI3
aI3
aI2
aI0
aI0
aI3
aI0
aI1
aI0
aI3
aI1
aI0
aI2
aI0
aI0
aI3
aI3
aI3
aI3
aI3
aI3
aI1
aI2
aI3
aI0
aI3
aI3
aI2
aI1
aI3
aI3
aI0
aI1
aI1
aI1
aI3
aI3
aI2
aI0
aI1
aI0
aI2
aI0
aI1
aI2
aI3
aI3
aI3
aI2
aI1
aI2
aI2
aI1
aI0
aI0
aI0
aI0
aI3
aI2
aI3
aI2
aI2
aI1
aI0
aI0
aI2
aI3
aI0
aI1
aI3
aI1
aI0
aI1
aI1
aI0
aI3
aI1
aI3
aI2
aI3
aI0
aI3
aI0
aI3
aI1
aI3
aI3
aI0
aI0
aI2
aI1
aa(lp59
I2
aI0
aI1
aI1
aI1
aI1
aI1
aI1
aI2
aI2
aI0
aI3
aI1
aI1
aI1
aI3
aI3
aI2
aI3
aI3
aI2
aI2
aI1
aI1
aI2
aI0
aI3
aI1
aI2
aI1
aI1
aI3
aI2
aI2
aI1
aI0
aI1
aI2
aI1
aI1
aI0
aI0
aI1
aI0
aI3
aI0
aI0
aI0
aI1
aI2
aI1
aI0
aI2
aI0
aI0
aI2
aI0
aI2
aI0
aI0
aI2
aI0
aI2
aI2
aI1
aI0
aI1
aI0
aI3
aI0
aI0
aI2
aI3
aI2
aI0
aI0
aI0
aI3
aI3
aI2
aI2
aI2
aI0
aI2
aI1
aI0
aI1
aI1
aI3
aI2
aI2
aI1
aI0
aI1
aI2
aI1
aI3
aI0
aI0
aI3
aa(lp60
I0
aI0
aI2
aI2
aI0
aI1
aI2
aI1
aI0
aI2
aI1
aI2
aI0
aI2
aI3
aI3
aI1
aI3
aI2
aI2
aI2
aI1
aI3
aI0
aI0
aI0
aI3
aI1
aI0
aI0
aI0
aI2
aI3
aI0
aI3
aI1
aI2
aI0
aI2
aI2
aI2
aI2
aI2
aI0
aI3
aI0
aI3
aI3
aI3
aI1
aI0
aI3
aI3
aI3
aI2
aI2
aI1
aI2
aI2
aI2
aI3
aI3
aI0
aI2
aI0
aI1
aI1
aI3
aI0
aI1
aI3
aI2
aI3
aI3
aI2
aI3
aI2
aI0
aI2
aI1
aI0
aI3
aI1
aI3
aI1
aI3
aI1
aI0
aI0
aI1
aI2
aI1
aI1
aI2
aI2
aI0
aI3
aI0
aI1
aI3
aa(lp61
I3
aI3
aI2
aI2
aI1
aI3
aI2
aI3
aI1
aI3
aI0
aI1
aI1
aI2
aI3
aI0
aI0
aI0
aI0
aI2
aI1
aI2
aI0
aI3
aI3
aI2
aI0
aI2
aI0
aI1
aI3
aI3
aI2
aI1
aI1
aI2
aI0
aI2
aI2
aI2
aI0
aI2
aI0
aI3
aI1
aI1
aI3
aI2
aI0
aI3
aI1
aI2
aI2
aI3
aI1
aI3
aI3
aI3
aI2
aI1
aI0
aI2
aI2
aI3
aI0
aI1
aI2
aI0
aI0
aI3
aI2
aI1
aI2
aI1
aI0
aI3
aI2
aI3
aI3
aI0
aI2
aI1
aI3
aI1
aI1
aI2
aI3
aI0
aI2
aI0
aI1
aI0
aI3
aI1
aI1
aI3
aI3
aI3
aI1
aI0
aa(lp62
I2
aI0
aI3
aI3
aI2
aI0
aI0
aI0
aI2
aI3
aI2
aI2
aI0
aI3
aI0
aI0
aI0
aI0
aI3
aI0
aI1
aI3
aI2
aI0
aI3
aI2
aI0
aI1
aI3
aI0
aI1
aI3
aI0
aI1
aI3
aI2
aI0
aI0
aI3
aI3
aI3
aI2
aI3
aI3
aI3
aI0
aI0
aI2
aI2
aI0
aI2
aI0
aI3
aI1
aI2
aI0
aI0
aI2
aI1
aI3
aI2
aI3
aI1
aI3
aI2
aI2
aI2
aI3
aI1
aI3
aI1
aI1
aI2
aI2
aI0
aI3
aI0
aI0
aI3
aI2
aI3
aI2
aI2
aI3
aI0
aI3
aI3
aI1
aI2
aI2
aI3
aI0
aI1
aI1
aI2
aI2
aI0
aI1
aI3
aI2
aa(lp63
I2
aI2
aI1
aI3
aI2
aI3
aI3
aI0
aI3
aI3
aI2
aI0
aI2
aI3
aI1
aI3
aI3
aI3
aI3
aI0
aI3
aI2
aI0
aI2
aI2
aI0
aI0
aI0
aI2
aI1
aI0
aI3
aI0
aI2
aI1
aI3
aI3
aI3
aI0
aI3
aI2
aI2
aI2
aI2
aI1
aI3
aI2
aI2
aI0
aI2
aI1
aI2
aI1
aI2
aI2
aI1
aI3
aI2
aI1
aI3
aI1
aI0
aI1
aI2
aI0
aI0
aI3
aI1
aI3
aI3
aI3
aI3
aI2
aI3
aI3
aI3
aI0
aI1
aI3
aI1
aI1
aI2
aI3
aI1
aI2
aI2
aI1
aI1
aI3
aI2
aI2
aI0
aI1
aI2
aI2
aI0
aI3
aI1
aI2
aI2
aa(lp64
I2
aI3
aI0
aI1
aI1
aI0
aI0
aI0
aI1
aI1
aI3
aI3
aI0
aI0
aI3
aI0
aI0
aI2
aI0
aI0
aI2
aI3
aI0
aI2
aI3
aI2
aI0
aI1
aI3
aI3
aI3
aI0
aI0
aI3
aI2
aI3
aI2
aI3
aI0
aI0
aI0
aI3
aI2
aI0
aI1
aI0
aI2
aI0
aI1
aI0
aI3
aI3
aI3
aI0
aI0
aI3
aI1
aI2
aI1
aI0
aI1
aI0
aI2
aI2
aI3
aI1
aI2
aI1
aI0
aI3
aI0
aI0
aI1
aI1
aI0
aI3
aI0
aI1
aI1
aI1
aI0
aI1
aI3
aI1
aI1
aI1
aI3
aI0
aI2
aI2
aI0
aI3
aI2
aI1
aI0
aI1
aI1
aI3
aI0
aI2
aa(lp65
I3
aI1
aI1
aI2
aI1
aI2
aI0
aI2
aI3
aI0
aI2
aI2
aI2
aI2
aI1
aI0
aI0
aI3
aI0
aI0
aI2
aI0
aI2
aI2
aI2
aI2
aI3
aI1
aI3
aI3
aI2
aI1
aI0
aI2
aI2
aI0
aI1
aI2
aI3
aI0
aI1
aI1
aI2
aI2
aI3
aI2
aI0
aI1
aI1
aI2
aI0
aI1
aI3
aI1
aI1
aI1
aI2
aI0
aI2
aI3
aI3
aI1
aI3
aI2
aI3
aI0
aI2
aI0
aI0
aI2
aI3
aI2
aI2
aI0
aI2
aI2
aI0
aI2
aI0
aI3
aI2
aI3
aI1
aI0
aI0
aI1
aI3
aI1
aI2
aI2
aI0
aI0
aI3
aI2
aI1
aI2
aI1
aI0
aI0
aI2
aa(lp66
I2
aI3
aI3
aI2
aI3
aI2
aI0
aI1
aI1
aI1
aI0
aI0
aI1
aI2
aI3
aI2
aI1
aI2
aI3
aI0
aI2
aI1
aI2
aI0
aI1
aI0
aI1
aI2
aI3
aI2
aI2
aI1
aI1
aI3
aI2
aI1
aI3
aI0
aI2
aI3
aI0
aI3
aI3
aI3
aI2
aI2
aI0
aI0
aI3
aI2
aI1
aI1
aI0
aI3
aI3
aI3
aI1
aI1
aI2
aI0
aI3
aI2
aI0
aI0
aI2
aI3
aI2
aI2
aI3
aI3
aI3
aI1
aI3
aI0
aI2
aI2
aI3
aI3
aI1
aI3
aI1
aI3
aI0
aI3
aI1
aI3
aI0
aI2
aI2
aI0
aI3
aI0
aI0
aI0
aI3
aI3
aI1
aI3
aI2
aI1
aa(lp67
I2
aI2
aI2
aI1
aI3
aI1
aI0
aI3
aI2
aI1
aI2
aI3
aI2
aI3
aI1
aI0
aI0
aI3
aI0
aI3
aI3
aI2
aI1
aI3
aI1
aI1
aI2
aI1
aI3
aI3
aI0
aI2
aI2
aI2
aI2
aI3
aI2
aI2
aI2
aI3
aI1
aI2
aI0
aI2
aI2
aI0
aI3
aI1
aI3
aI3
aI3
aI2
aI3
aI3
aI0
aI2
aI2
aI3
aI0
aI0
aI3
aI0
aI0
aI3
aI2
aI0
aI3
aI1
aI3
aI0
aI1
aI1
aI2
aI3
aI1
aI0
aI0
aI3
aI0
aI1
aI1
aI0
aI0
aI1
aI2
aI2
aI0
aI1
aI2
aI0
aI2
aI0
aI1
aI0
aI2
aI2
aI0
aI1
aI1
aI1
aa(lp68
I1
aI0
aI3
aI1
aI3
aI3
aI1
aI2
aI1
aI1
aI1
aI3
aI3
aI3
aI1
aI1
aI2
aI2
aI0
aI3
aI2
aI1
aI2
aI2
aI0
aI3
aI0
aI2
aI0
aI0
aI0
aI0
aI2
aI3
aI3
aI0
aI3
aI0
aI1
aI1
aI1
aI2
aI0
aI2
aI2
aI1
aI0
aI1
aI2
aI2
aI3
aI2
aI3
aI3
aI3
aI3
aI0
aI0
aI2
aI3
aI1
aI2
aI2
aI3
aI2
aI0
aI3
aI3
aI1
aI2
aI2
aI1
aI0
aI2
aI2
aI2
aI1
aI1
aI3
aI3
aI1
aI0
aI2
aI2
aI2
aI3
aI0
aI1
aI2
aI0
aI1
aI1
aI2
aI0
aI0
aI1
aI1
aI2
aI3
aI2
aa(lp69
I0
aI3
aI0
aI3
aI0
aI0
aI2
aI2
aI0
aI0
aI1
aI2
aI1
aI1
aI0
aI2
aI0
aI0
aI2
aI0
aI0
aI2
aI1
aI0
aI1
aI0
aI3
aI3
aI2
aI0
aI0
aI3
aI2
aI1
aI1
aI3
aI1
aI3
aI1
aI2
aI2
aI0
aI3
aI1
aI2
aI3
aI2
aI0
aI1
aI2
aI1
aI3
aI1
aI3
aI2
aI1
aI2
aI0
aI1
aI1
aI0
aI2
aI1
aI3
aI3
aI0
aI0
aI3
aI3
aI2
aI0
aI2
aI1
aI3
aI3
aI2
aI3
aI1
aI3
aI1
aI3
aI2
aI2
aI0
aI0
aI2
aI3
aI3
aI2
aI3
aI0
aI1
aI2
aI2
aI2
aI2
aI3
aI1
aI0
aI0
aa(lp70
I1
aI0
aI2
aI2
aI2
aI3
aI3
aI2
aI0
aI1
aI1
aI3
aI0
aI2
aI3
aI0
aI1
aI0
aI0
aI2
aI0
aI1
aI2
aI2
aI3
aI1
aI3
aI1
aI0
aI0
aI3
aI1
aI2
aI2
aI3
aI2
aI1
aI3
aI2
aI2
aI0
aI3
aI0
aI0
aI0
aI0
aI1
aI1
aI1
aI3
aI0
aI1
aI3
aI1
aI3
aI2
aI1
aI3
aI2
aI3
aI1
aI3
aI1
aI3
aI3
aI0
aI3
aI1
aI0
aI1
aI3
aI1
aI3
aI0
aI2
aI1
aI3
aI3
aI0
aI0
aI3
aI3
aI3
aI1
aI2
aI0
aI0
aI0
aI0
aI3
aI1
aI2
aI3
aI1
aI1
aI2
aI3
aI0
aI1
aI2
aa(lp71
I3
aI1
aI0
aI3
aI0
aI0
aI2
aI3
aI3
aI2
aI1
aI3
aI2
aI3
aI3
aI3
aI0
aI0
aI0
aI1
aI1
aI1
aI0
aI0
aI0
aI0
aI3
aI1
aI2
aI3
aI2
aI2
aI3
aI2
aI1
aI0
aI0
aI0
aI3
aI2
aI2
aI2
aI0
aI2
aI3
aI0
aI0
aI3
aI0
aI3
aI0
aI3
aI1
aI3
aI1
aI2
aI2
aI1
aI0
aI0
aI3
aI3
aI3
aI0
aI1
aI3
aI3
aI3
aI1
aI2
aI3
aI2
aI2
aI1
aI2
aI1
aI1
aI3
aI3
aI3
aI0
aI0
aI0
aI1
aI1
aI2
aI3
aI1
aI3
aI0
aI1
aI3
aI2
aI1
aI0
aI1
aI2
aI1
aI3
aI0
aa(lp72
I1
aI3
aI1
aI0
aI3
aI2
aI0
aI0
aI1
aI0
aI1
aI3
aI0
aI1
aI2
aI0
aI3
aI3
aI1
aI0
aI2
aI3
aI3
aI3
aI1
aI1
aI3
aI0
aI3
aI2
aI0
aI2
aI1
aI1
aI0
aI3
aI2
aI1
aI0
aI1
aI1
aI1
aI3
aI0
aI1
aI2
aI3
aI1
aI0
aI3
aI1
aI1
aI2
aI0
aI1
aI1
aI0
aI0
aI2
aI2
aI0
aI2
aI0
aI3
aI1
aI3
aI1
aI2
aI0
aI1
aI2
aI3
aI2
aI0
aI0
aI2
aI1
aI3
aI3
aI1
aI1
aI2
aI2
aI3
aI0
aI0
aI0
aI3
aI3
aI1
aI2
aI3
aI1
aI2
aI0
aI0
aI3
aI3
aI3
aI1
aa(lp73
I0
aI1
aI1
aI0
aI3
aI3
aI0
aI2
aI3
aI3
aI3
aI3
aI0
aI3
aI2
aI0
aI0
aI2
aI2
aI0
aI2
aI3
aI2
aI2
aI3
aI0
aI0
aI3
aI3
aI0
aI3
aI2
aI0
aI0
aI2
aI0
aI2
aI2
aI2
aI0
aI0
aI2
aI0
aI0
aI2
aI0
aI3
aI2
aI0
aI2
aI1
aI2
aI2
aI1
aI3
aI0
aI3
aI1
aI0
aI0
aI0
aI3
aI0
aI0
aI1
aI0
aI1
aI1
aI0
aI1
aI2
aI2
aI2
aI1
aI1
aI2
aI2
aI3
aI0
aI2
aI1
aI2
aI3
aI3
aI0
aI2
aI2
aI2
aI3
aI2
aI1
aI3
aI0
aI3
aI2
aI1
aI1
aI2
aI1
aI3
aa(lp74
I3
aI0
aI2
aI0
aI1
aI3
aI2
aI0
aI0
aI0
aI3
aI2
aI3
aI2
aI2
aI2
aI1
aI3
aI3
aI0
aI2
aI1
aI2
aI1
aI2
aI3
aI3
aI3
aI2
aI0
aI0
aI1
aI3
aI0
aI2
aI3
aI2
aI0
aI0
aI0
aI3
aI1
aI1
aI0
aI0
aI0
aI0
aI2
aI1
aI3
aI2
aI3
aI1
aI0
aI2
aI2
aI0
aI1
aI0
aI3
aI2
aI2
aI2
aI2
aI1
aI1
aI2
aI3
aI1
aI3
aI3
aI3
aI1
aI1
aI2
aI2
aI3
aI0
aI3
aI2
aI2
aI1
aI0
aI1
aI2
aI3
aI1
aI3
aI3
aI2
aI3
aI3
aI0
aI2
aI2
aI2
aI1
aI3
aI2
aI0
aa(lp75
I1
aI3
aI2
aI3
aI2
aI0
aI2
aI1
aI2
aI1
aI0
aI0
aI3
aI3
aI3
aI1
aI2
aI1
aI3
aI1
aI3
aI3
aI0
aI3
aI1
aI1
aI1
aI2
aI2
aI1
aI3
aI0
aI1
aI3
aI2
aI0
aI0
aI0
aI1
aI1
aI0
aI0
aI0
aI2
aI0
aI1
aI2
aI1
aI0
aI0
aI2
aI1
aI3
aI2
aI2
aI2
aI0
aI2
aI3
aI2
aI2
aI1
aI0
aI2
aI2
aI0
aI0
aI2
aI1
aI2
aI1
aI1
aI2
aI3
aI2
aI1
aI3
aI2
aI3
aI3
aI3
aI3
aI1
aI3
aI0
aI0
aI0
aI1
aI0
aI3
aI3
aI1
aI2
aI2
aI0
aI0
aI2
aI3
aI0
aI3
aa(lp76
I3
aI0
aI1
aI0
aI1
aI3
aI3
aI2
aI1
aI2
aI0
aI3
aI0
aI3
aI2
aI0
aI0
aI3
aI3
aI1
aI2
aI0
aI1
aI0
aI1
aI1
aI2
aI0
aI1
aI3
aI0
aI2
aI1
aI3
aI3
aI3
aI3
aI1
aI2
aI0
aI1
aI2
aI3
aI2
aI2
aI1
aI3
aI0
aI0
aI3
aI0
aI3
aI3
aI2
aI1
aI3
aI3
aI0
aI3
aI2
aI0
aI0
aI3
aI3
aI3
aI0
aI3
aI2
aI3
aI3
aI2
aI3
aI1
aI0
aI3
aI3
aI2
aI3
aI2
aI0
aI2
aI3
aI0
aI3
aI3
aI1
aI2
aI3
aI0
aI1
aI1
aI1
aI2
aI1
aI2
aI2
aI1
aI0
aI0
aI1
aa(lp77
I1
aI3
aI2
aI0
aI2
aI1
aI0
aI0
aI2
aI3
aI2
aI3
aI0
aI3
aI1
aI3
aI3
aI2
aI0
aI2
aI3
aI1
aI2
aI1
aI0
aI2
aI2
aI0
aI0
aI0
aI1
aI3
aI2
aI0
aI2
aI3
aI2
aI1
aI2
aI3
aI1
aI0
aI3
aI2
aI0
aI2
aI1
aI3
aI1
aI3
aI1
aI1
aI3
aI0
aI3
aI3
aI0
aI2
aI3
aI2
aI0
aI0
aI3
aI1
aI2
aI3
aI0
aI1
aI2
aI3
aI2
aI0
aI1
aI3
aI2
aI2
aI0
aI0
aI1
aI1
aI2
aI1
aI3
aI2
aI1
aI3
aI1
aI3
aI1
aI2
aI3
aI0
aI2
aI0
aI3
aI0
aI2
aI2
aI1
aI0
aa(lp78
I0
aI3
aI1
aI0
aI0
aI2
aI2
aI2
aI0
aI0
aI3
aI1
aI0
aI3
aI3
aI2
aI3
aI1
aI1
aI3
aI3
aI0
aI2
aI1
aI1
aI3
aI1
aI2
aI0
aI1
aI3
aI3
aI2
aI3
aI1
aI0
aI0
aI0
aI1
aI2
aI3
aI1
aI3
aI1
aI2
aI0
aI1
aI1
aI0
aI0
aI2
aI3
aI2
aI3
aI1
aI1
aI3
aI3
aI1
aI0
aI2
aI1
aI3
aI3
aI1
aI3
aI1
aI3
aI0
aI2
aI3
aI2
aI3
aI0
aI2
aI0
aI3
aI0
aI1
aI1
aI2
aI1
aI3
aI1
aI0
aI2
aI1
aI0
aI2
aI1
aI3
aI3
aI3
aI2
aI3
aI1
aI1
aI0
aI2
aI1
aa(lp79
I3
aI1
aI1
aI2
aI3
aI1
aI0
aI3
aI1
aI1
aI3
aI3
aI0
aI2
aI0
aI0
aI1
aI1
aI0
aI0
aI0
aI1
aI1
aI0
aI1
aI2
aI0
aI3
aI1
aI1
aI3
aI2
aI0
aI0
aI0
aI3
aI3
aI0
aI0
aI3
aI3
aI1
aI0
aI3
aI3
aI3
aI1
aI2
aI3
aI1
aI1
aI2
aI0
aI1
aI3
aI3
aI1
aI2
aI1
aI1
aI2
aI0
aI2
aI0
aI2
aI2
aI0
aI0
aI1
aI2
aI3
aI1
aI1
aI1
aI1
aI1
aI1
aI3
aI3
aI1
aI1
aI3
aI2
aI2
aI3
aI2
aI2
aI3
aI0
aI1
aI1
aI1
aI3
aI1
aI3
aI2
aI1
aI0
aI2
aI2
aa(lp80
I3
aI3
aI0
aI2
aI3
aI0
aI1
aI1
aI3
aI3
aI2
aI0
aI0
aI2
aI2
aI3
aI1
aI2
aI0
aI0
aI2
aI2
aI3
aI3
aI3
aI2
aI1
aI3
aI1
aI2
aI3
aI3
aI1
aI2
aI2
aI0
aI3
aI3
aI3
aI3
aI2
aI3
aI1
aI1
aI1
aI2
aI0
aI2
aI1
aI1
aI0
aI1
aI0
aI1
aI3
aI2
aI2
aI0
aI3
aI0
aI2
aI2
aI1
aI0
aI2
aI1
aI3
aI0
aI1
aI3
aI2
aI0
aI2
aI0
aI3
aI2
aI3
aI3
aI0
aI2
aI0
aI3
aI0
aI3
aI1
aI2
aI1
aI3
aI2
aI3
aI1
aI0
aI3
aI3
aI2
aI0
aI1
aI2
aI0
aI0
aa(lp81
I0
aI2
aI1
aI3
aI1
aI3
aI0
aI0
aI1
aI3
aI1
aI1
aI2
aI1
aI1
aI2
aI3
aI2
aI0
aI1
aI0
aI2
aI0
aI3
aI3
aI1
aI3
aI1
aI2
aI1
aI2
aI0
aI3
aI3
aI2
aI1
aI1
aI3
aI1
aI0
aI3
aI0
aI3
aI0
aI3
aI0
aI0
aI3
aI0
aI3
aI0
aI0
aI1
aI2
aI3
aI3
aI1
aI1
aI3
aI0
aI2
aI1
aI1
aI1
aI2
aI1
aI3
aI0
aI2
aI1
aI2
aI3
aI0
aI2
aI2
aI1
aI1
aI3
aI3
aI1
aI1
aI3
aI1
aI0
aI0
aI2
aI3
aI0
aI1
aI0
aI0
aI3
aI2
aI0
aI1
aI3
aI1
aI0
aI3
aI3
aa(lp82
I3
aI2
aI2
aI3
aI1
aI0
aI3
aI2
aI0
aI2
aI0
aI3
aI3
aI3
aI1
aI3
aI0
aI0
aI0
aI3
aI0
aI1
aI2
aI1
aI1
aI3
aI0
aI1
aI2
aI1
aI3
aI2
aI1
aI2
aI1
aI0
aI3
aI3
aI0
aI1
aI2
aI1
aI1
aI0
aI1
aI1
aI0
aI1
aI3
aI1
aI0
aI0
aI3
aI0
aI1
aI3
aI3
aI2
aI0
aI3
aI3
aI1
aI3
aI0
aI0
aI1
aI1
aI1
aI3
aI1
aI1
aI2
aI1
aI2
aI2
aI2
aI2
aI1
aI2
aI3
aI3
aI1
aI1
aI0
aI1
aI3
aI1
aI0
aI1
aI1
aI1
aI0
aI3
aI0
aI1
aI0
aI0
aI1
aI0
aI0
aa(lp83
I2
aI2
aI0
aI0
aI1
aI1
aI1
aI0
aI3
aI2
aI3
aI2
aI1
aI2
aI1
aI0
aI1
aI1
aI1
aI2
aI3
aI2
aI3
aI0
aI1
aI3
aI3
aI2
aI0
aI1
aI2
aI1
aI0
aI2
aI2
aI1
aI1
aI2
aI0
aI0
aI2
aI0
aI2
aI0
aI1
aI1
aI2
aI2
aI0
aI2
aI2
aI0
aI2
aI1
aI2
aI0
aI1
aI1
aI3
aI1
aI2
aI1
aI3
aI3
aI0
aI2
aI0
aI0
aI2
aI2
aI3
aI0
aI0
aI3
aI3
aI1
aI3
aI3
aI3
aI1
aI1
aI3
aI1
aI3
aI0
aI2
aI3
aI3
aI2
aI3
aI3
aI0
aI1
aI1
aI0
aI2
aI1
aI3
aI0
aI1
aa(lp84
I2
aI2
aI2
aI3
aI0
aI2
aI2
aI2
aI0
aI3
aI0
aI1
aI1
aI1
aI1
aI0
aI3
aI3
aI1
aI2
aI2
aI1
aI2
aI1
aI0
aI2
aI3
aI2
aI2
aI3
aI3
aI0
aI1
aI0
aI0
aI3
aI1
aI2
aI2
aI1
aI3
aI3
aI3
aI0
aI0
aI3
aI3
aI1
aI3
aI3
aI2
aI2
aI0
aI3
aI0
aI1
aI3
aI2
aI3
aI3
aI2
aI1
aI2
aI3
aI0
aI2
aI1
aI0
aI1
aI2
aI1
aI0
aI2
aI0
aI2
aI2
aI2
aI2
aI1
aI2
aI1
aI2
aI2
aI0
aI0
aI2
aI2
aI2
aI2
aI1
aI3
aI3
aI1
aI3
aI3
aI2
aI0
aI0
aI1
aI0
aa(lp85
I2
aI3
aI1
aI3
aI1
aI2
aI0
aI2
aI0
aI3
aI1
aI2
aI3
aI2
aI3
aI2
aI1
aI2
aI3
aI0
aI1
aI1
aI0
aI3
aI0
aI3
aI3
aI0
aI1
aI3
aI1
aI3
aI0
aI1
aI2
aI2
aI3
aI1
aI2
aI2
aI1
aI2
aI1
aI3
aI0
aI2
aI1
aI2
aI0
aI2
aI0
aI2
aI2
aI2
aI0
aI3
aI2
aI3
aI2
aI0
aI0
aI2
aI1
aI0
aI0
aI3
aI2
aI0
aI0
aI3
aI2
aI2
aI0
aI1
aI0
aI0
aI1
aI3
aI3
aI3
aI1
aI2
aI3
aI2
aI3
aI2
aI0
aI1
aI3
aI2
aI3
aI1
aI3
aI3
aI1
aI1
aI1
aI3
aI3
aI1
aa(lp86
I2
aI1
aI3
aI2
aI1
aI2
aI3
aI3
aI2
aI2
aI1
aI0
aI0
aI2
aI2
aI2
aI3
aI3
aI3
aI3
aI2
aI0
aI0
aI0
aI1
aI3
aI1
aI0
aI0
aI1
aI2
aI3
aI2
aI3
aI2
aI3
aI3
aI1
aI0
aI3
aI2
aI2
aI0
aI1
aI1
aI1
aI0
aI3
aI1
aI2
aI2
aI3
aI2
aI1
aI1
aI3
aI0
aI3
aI1
aI3
aI1
aI0
aI3
aI2
aI1
aI2
aI3
aI2
aI3
aI3
aI2
aI1
aI1
aI1
aI2
aI1
aI0
aI1
aI3
aI1
aI3
aI2
aI0
aI3
aI3
aI2
aI1
aI1
aI1
aI2
aI1
aI2
aI1
aI2
aI3
aI1
aI2
aI2
aI2
aI3
aa(lp87
I2
aI0
aI3
aI1
aI2
aI1
aI2
aI1
aI1
aI1
aI3
aI2
aI0
aI2
aI1
aI2
aI2
aI0
aI1
aI2
aI3
aI2
aI2
aI0
aI2
aI0
aI2
aI1
aI1
aI1
aI0
aI3
aI1
aI1
aI2
aI0
aI0
aI2
aI0
aI2
aI1
aI2
aI3
aI0
aI2
aI1
aI3
aI3
aI1
aI0
aI0
aI2
aI1
aI3
aI3
aI1
aI1
aI3
aI2
aI1
aI3
aI3
aI1
aI0
aI0
aI0
aI1
aI0
aI3
aI0
aI2
aI0
aI2
aI0
aI3
aI0
aI2
aI3
aI0
aI2
aI3
aI0
aI2
aI1
aI2
aI3
aI1
aI2
aI1
aI3
aI1
aI0
aI0
aI1
aI1
aI3
aI2
aI2
aI1
aI1
aa(lp88
I3
aI0
aI3
aI1
aI1
aI3
aI0
aI3
aI0
aI0
aI2
aI3
aI3
aI0
aI2
aI1
aI3
aI2
aI2
aI1
aI0
aI2
aI2
aI2
aI3
aI0
aI0
aI1
aI3
aI0
aI1
aI0
aI3
aI3
aI1
aI2
aI1
aI3
aI2
aI2
aI1
aI0
aI0
aI3
aI2
aI1
aI3
aI0
aI1
aI0
aI2
aI1
aI3
aI2
aI0
aI3
aI1
aI3
aI0
aI2
aI2
aI0
aI0
aI3
aI3
aI2
aI1
aI2
aI3
aI1
aI1
aI3
aI2
aI0
aI0
aI3
aI0
aI3
aI3
aI3
aI1
aI1
aI1
aI1
aI0
aI2
aI2
aI3
aI3
aI3
aI0
aI3
aI2
aI0
aI3
aI2
aI2
aI2
aI0
aI2
aa(lp89
I2
aI1
aI2
aI3
aI3
aI3
aI2
aI0
aI3
aI3
aI1
aI3
aI3
aI1
aI1
aI0
aI2
aI3
aI3
aI0
aI2
aI0
aI2
aI2
aI2
aI3
aI1
aI3
aI1
aI2
aI2
aI0
aI3
aI1
aI0
aI1
aI2
aI2
aI3
aI2
aI0
aI3
aI0
aI1
aI3
aI0
aI3
aI0
aI0
aI1
aI2
aI0
aI3
aI0
aI0
aI3
aI2
aI2
aI0
aI3
aI0
aI2
aI1
aI1
aI1
aI2
aI2
aI1
aI0
aI2
aI1
aI0
aI0
aI0
aI3
aI0
aI0
aI1
aI2
aI2
aI1
aI2
aI3
aI0
aI3
aI1
aI3
aI0
aI1
aI0
aI3
aI2
aI3
aI0
aI1
aI3
aI3
aI2
aI1
aI3
aa(lp90
I0
aI3
aI1
aI2
aI0
aI2
aI2
aI0
aI0
aI2
aI3
aI3
aI0
aI3
aI3
aI2
aI2
aI2
aI0
aI2
aI1
aI1
aI1
aI2
aI1
aI1
aI2
aI0
aI0
aI3
aI0
aI0
aI2
aI0
aI0
aI0
aI0
aI0
aI1
aI3
aI1
aI1
aI1
aI2
aI1
aI0
aI1
aI2
aI2
aI2
aI3
aI2
aI1
aI0
aI2
aI0
aI2
aI0
aI0
aI0
aI1
aI2
aI1
aI1
aI1
aI1
aI2
aI3
aI1
aI3
aI2
aI0
aI3
aI3
aI0
aI2
aI0
aI1
aI2
aI0
aI3
aI0
aI2
aI2
aI3
aI1
aI3
aI2
aI0
aI3
aI2
aI3
aI1
aI1
aI2
aI1
aI3
aI3
aI1
aI0
aa(lp91
I1
aI3
aI1
aI0
aI3
aI2
aI3
aI2
aI3
aI2
aI2
aI2
aI1
aI2
aI0
aI3
aI3
aI3
aI3
aI0
aI1
aI1
aI3
aI2
aI3
aI0
aI3
aI3
aI1
aI3
aI2
aI1
aI3
aI2
aI0
aI0
aI3
aI2
aI2
aI0
aI0
aI2
aI1
aI0
aI3
aI3
aI1
aI0
aI2
aI2
aI0
aI3
aI3
aI0
aI3
aI0
aI0
aI1
aI1
aI2
aI0
aI0
aI1
aI2
aI1
aI0
aI1
aI0
aI1
aI2
aI0
aI2
aI1
aI2
aI3
aI3
aI1
aI3
aI2
aI2
aI2
aI0
aI0
aI3
aI1
aI2
aI2
aI3
aI2
aI0
aI3
aI2
aI1
aI0
aI1
aI2
aI1
aI3
aI1
aI1
aa(lp92
I2
aI3
aI2
aI3
aI1
aI2
aI2
aI3
aI1
aI1
aI0
aI1
aI1
aI0
aI3
aI1
aI2
aI3
aI0
aI0
aI3
aI1
aI1
aI1
aI1
aI0
aI1
aI1
aI3
aI1
aI2
aI1
aI3
aI2
aI0
aI2
aI0
aI1
aI1
aI1
aI1
aI3
aI0
aI3
aI1
aI2
aI1
aI3
aI0
aI2
aI3
aI2
aI3
aI3
aI3
aI1
aI3
aI2
aI0
aI1
aI1
aI3
aI0
aI1
aI0
aI2
aI0
aI0
aI0
aI3
aI3
aI2
aI2
aI0
aI2
aI2
aI2
aI3
aI0
aI2
aI0
aI2
aI0
aI3
aI0
aI3
aI0
aI1
aI3
aI0
aI3
aI2
aI2
aI0
aI2
aI0
aI3
aI3
aI0
aI1
aa(lp93
I2
aI3
aI1
aI3
aI3
aI3
aI1
aI1
aI3
aI1
aI1
aI0
aI2
aI0
aI3
aI3
aI1
aI3
aI2
aI1
aI1
aI2
aI1
aI0
aI0
aI3
aI3
aI3
aI1
aI2
aI3
aI2
aI3
aI0
aI1
aI0
aI2
aI0
aI1
aI3
aI0
aI3
aI3
aI2
aI0
aI2
aI0
aI3
aI1
aI2
aI3
aI1
aI0
aI1
aI3
aI0
aI2
aI3
aI3
aI3
aI0
aI3
aI2
aI1
aI3
aI0
aI0
aI2
aI2
aI3
aI1
aI1
aI1
aI1
aI3
aI2
aI2
aI3
aI3
aI0
aI0
aI3
aI1
aI1
aI1
aI2
aI1
aI3
aI0
aI1
aI0
aI2
aI2
aI3
aI1
aI3
aI0
aI2
aI2
aI1
aa(lp94
I0
aI1
aI1
aI2
aI3
aI1
aI1
aI0
aI1
aI1
aI2
aI3
aI2
aI0
aI0
aI0
aI3
aI3
aI0
aI2
aI2
aI3
aI0
aI3
aI1
aI3
aI3
aI3
aI0
aI3
aI1
aI0
aI0
aI3
aI2
aI1
aI1
aI0
aI0
aI2
aI1
aI2
aI0
aI3
aI0
aI1
aI2
aI3
aI0
aI0
aI3
aI3
aI3
aI3
aI0
aI0
aI0
aI3
aI0
aI3
aI1
aI0
aI3
aI0
aI0
aI1
aI2
aI2
aI3
aI0
aI0
aI1
aI1
aI2
aI0
aI2
aI2
aI3
aI2
aI3
aI3
aI2
aI3
aI2
aI3
aI2
aI2
aI2
aI2
aI3
aI2
aI3
aI2
aI1
aI1
aI3
aI0
aI0
aI3
aI0
aa(lp95
I2
aI0
aI0
aI3
aI1
aI2
aI0
aI1
aI3
aI1
aI2
aI3
aI3
aI0
aI1
aI0
aI0
aI2
aI3
aI3
aI2
aI0
aI0
aI1
aI1
aI0
aI3
aI3
aI1
aI3
aI0
aI2
aI0
aI0
aI2
aI1
aI1
aI1
aI2
aI1
aI3
aI2
aI0
aI1
aI3
aI2
aI3
aI2
aI2
aI3
aI3
aI2
aI3
aI3
aI2
aI2
aI3
aI2
aI0
aI0
aI3
aI2
aI3
aI3
aI3
aI0
aI1
aI0
aI1
aI2
aI2
aI1
aI2
aI3
aI0
aI3
aI0
aI0
aI3
aI3
aI3
aI3
aI1
aI0
aI2
aI3
aI0
aI3
aI2
aI2
aI3
aI2
aI2
aI3
aI1
aI2
aI1
aI3
aI2
aI1
aa(lp96
I1
aI3
aI2
aI1
aI1
aI0
aI3
aI3
aI1
aI1
aI1
aI3
aI0
aI1
aI1
aI0
aI3
aI1
aI3
aI1
aI1
aI0
aI1
aI2
aI3
aI1
aI3
aI2
aI1
aI0
aI0
aI0
aI0
aI3
aI0
aI3
aI1
aI0
aI3
aI0
aI3
aI0
aI2
aI1
aI2
aI2
aI0
aI1
aI1
aI3
aI1
aI1
aI1
aI2
aI3
aI1
aI0
aI3
aI0
aI0
aI2
aI1
aI0
aI3
aI1
aI2
aI2
aI1
aI0
aI2
aI2
aI0
aI3
aI2
aI3
aI1
aI2
aI2
aI3
aI1
aI3
aI2
aI3
aI1
aI3
aI2
aI3
aI3
aI0
aI0
aI0
aI2
aI2
aI2
aI2
aI1
aI2
aI2
aI0
aI3
aa(lp97
I0
aI3
aI1
aI2
aI3
aI0
aI3
aI3
aI0
aI2
aI1
aI0
aI2
aI3
aI1
aI2
aI3
aI2
aI1
aI0
aI2
aI2
aI0
aI3
aI1
aI0
aI1
aI0
aI2
aI2
aI3
aI1
aI0
aI3
aI1
aI3
aI0
aI0
aI0
aI0
aI3
aI0
aI3
aI1
aI0
aI2
aI0
aI1
aI1
aI2
aI3
aI0
aI2
aI1
aI0
aI2
aI3
aI0
aI1
aI1
aI0
aI3
aI3
aI2
aI2
aI0
aI0
aI0
aI3
aI3
aI3
aI1
aI0
aI0
aI1
aI2
aI0
aI2
aI3
aI2
aI0
aI1
aI1
aI3
aI0
aI3
aI0
aI3
aI1
aI0
aI0
aI1
aI0
aI3
aI0
aI1
aI3
aI2
aI3
aI0
aa(lp98
I3
aI1
aI3
aI1
aI0
aI3
aI2
aI2
aI2
aI1
aI0
aI0
aI1
aI0
aI2
aI0
aI2
aI0
aI3
aI3
aI0
aI3
aI2
aI3
aI1
aI1
aI0
aI3
aI3
aI1
aI1
aI0
aI0
aI0
aI3
aI0
aI0
aI1
aI2
aI3
aI3
aI2
aI1
aI3
aI3
aI1
aI2
aI3
aI1
aI3
aI0
aI2
aI3
aI2
aI2
aI3
aI3
aI0
aI0
aI3
aI3
aI3
aI1
aI0
aI2
aI3
aI0
aI3
aI3
aI3
aI0
aI1
aI2
aI3
aI0
aI0
aI3
aI1
aI0
aI1
aI3
aI0
aI1
aI0
aI2
aI0
aI0
aI1
aI2
aI1
aI3
aI3
aI3
aI3
aI0
aI3
aI2
aI2
aI0
aI0
aa(lp99
I3
aI1
aI0
aI1
aI3
aI3
aI2
aI0
aI1
aI0
aI2
aI3
aI3
aI2
aI3
aI3
aI1
aI1
aI3
aI1
aI3
aI0
aI1
aI2
aI1
aI2
aI0
aI0
aI1
aI3
aI0
aI2
aI0
aI1
aI1
aI2
aI1
aI2
aI2
aI0
aI3
aI0
aI3
aI1
aI1
aI3
aI2
aI3
aI0
aI1
aI0
aI0
aI3
aI3
aI1
aI1
aI3
aI0
aI3
aI2
aI2
aI0
aI0
aI3
aI0
aI1
aI2
aI2
aI1
aI2
aI3
aI3
aI3
aI0
aI0
aI0
aI0
aI3
aI0
aI0
aI3
aI2
aI1
aI1
aI2
aI2
aI2
aI2
aI3
aI3
aI1
aI1
aI2
aI3
aI3
aI0
aI0
aI1
aI0
aI2
aa(lp100
I3
aI0
aI1
aI3
aI3
aI2
aI1
aI0
aI2
aI2
aI1
aI3
aI1
aI0
aI3
aI1
aI1
aI0
aI2
aI0
aI1
aI2
aI0
aI0
aI1
aI2
aI2
aI0
aI0
aI1
aI1
aI3
aI2
aI2
aI3
aI3
aI1
aI2
aI0
aI0
aI2
aI0
aI1
aI2
aI3
aI1
aI3
aI0
aI1
aI1
aI3
aI0
aI0
aI0
aI2
aI3
aI2
aI2
aI0
aI3
aI3
aI1
aI0
aI0
aI1
aI2
aI0
aI3
aI2
aI1
aI1
aI1
aI3
aI0
aI0
aI1
aI3
aI3
aI3
aI3
aI2
aI3
aI2
aI1
aI1
aI0
aI1
aI0
aI3
aI2
aI2
aI2
aI2
aI0
aI1
aI1
aI1
aI3
aI1
aI0
aa.